(lp0
(I3
(dp1
I1
F0.5
sI2
F0.5
sI3
F0.5
sI4
F0.5
sI5
F0.5
sI6
F0.5
sI7
F0.5
sI8
F0.5
sI9
F0.5
sI10
F0.5
sI11
F0.5
sI12
F0.5
sI13
F0.5
sI14
F0.5
sI15
F0.5
sI16
F0.5
sI17
F0.5
sI18
F0.5
sI19
F0.5
sI20
F0.5
sI21
F0.5
sI22
F0.5
sI23
F0.5
sI24
F0.5
sI25
F0.5
sI26
F0.5
sI27
F0.5
sI28
F0.5
sI29
F0.5
sI30
F0.5
sI31
F0.5
sI32
F0.5
sI33
F0.5
sI34
F0.5
sI35
F0.5
sI36
F0.5
sI37
F0.5
sI38
F0.5
sI39
F0.5
sI40
F0.5
sI41
F0.5
sI42
F0.5
sI43
F0.5
sI44
F0.5
sI45
F0.5
sI46
F0.5
sI47
F0.5
sI48
F0.5
sI49
F0.5
sI50
F0.5
sI51
F0.5
sI52
F0.5
sI53
F0.5
sI54
F0.5
sI55
F0.5
sI56
F0.5
sI57
F0.5
sI58
F0.5
sI59
F0.5
sI60
F0.5
sI61
F0.5
sI62
F0.5
sI63
F0.5
sI64
F0.5
sI65
F0.5
sI66
F0.5
sI67
F0.5
sI68
F0.5
sI69
F0.5
sI70
F0.5
sI71
F0.5
sI72
F0.5
sI73
F0.5
sI74
F0.5
sI75
F0.5
sI76
F0.5
sI77
F0.5
sI78
F0.5
sI79
F0.5
sI80
F0.5
sI81
F0.5
sI82
F0.5
sI83
F0.5
sI84
F0.5
sI85
F0.5
sI86
F0.5
sI87
F0.5
sI88
F0.5
sI89
F0.5
sI90
F0.5
sI91
F0.5
sI92
F0.5
sI93
F0.5
sI94
F0.5
sI95
F0.5
sI96
F0.5
sI97
F0.5
sI98
F0.5
sI99
F0.5
sI100
F0.5
sI101
F0.5
sI102
F0.5
sI103
F0.5
sI104
F0.5
sI105
F0.5
sI106
F0.5
sI107
F0.5
sI108
F0.5
sI109
F0.5
sI110
F0.5
sI111
F0.5
sI112
F0.5
sI113
F0.5
sI114
F0.5
sI115
F0.5
sI116
F0.5
sI117
F0.5
sI118
F0.5
sI119
F0.5
sI120
F0.5
sI121
F0.5
sI122
F0.5
sI123
F0.5
sI124
F0.5
sI125
F0.5
sI126
F0.5
sI127
F0.5
sI128
F0.5
sI129
F0.5
sI130
F0.5
sI131
F0.5
sI132
F0.5
sI133
F0.5
sI134
F0.5
sI135
F0.5
sI136
F0.5
sI137
F0.5
sI138
F0.5
sI139
F0.5
sI140
F0.5
sI141
F0.5
sI142
F0.5
sI143
F0.5
sI144
F0.5
sI145
F0.5
sI146
F0.5
sI147
F0.5
sI148
F0.5
sI149
F0.5
sI150
F0.5
sI151
F0.5
sI152
F0.5
sI153
F0.5
sI154
F0.5
sI155
F0.5
sI156
F0.5
sI157
F0.5
sI158
F0.5
sI159
F0.5
sI160
F0.5
sF160.0
F0.0
tp2
a(I2
(dp3
I1
F0.305
sI2
F0.305
sI3
F0.305
sI4
F0.305
sI5
F0.305
sI6
F0.305
sI7
F0.305
sI8
F0.305
sI9
F0.6950000000000001
sI10
F0.6950000000000001
sI11
F0.305
sI12
F0.305
sI13
F0.305
sI14
F0.305
sI15
F0.305
sI16
F0.305
sI17
F0.305
sI18
F0.305
sI19
F0.305
sI20
F0.305
sI21
F0.305
sI22
F0.305
sI23
F0.305
sI24
F0.305
sI25
F0.305
sI26
F0.305
sI27
F0.305
sI28
F0.305
sI29
F0.6950000000000001
sI30
F0.6950000000000001
sI31
F0.305
sI32
F0.305
sI33
F0.305
sI34
F0.305
sI35
F0.305
sI36
F0.305
sI37
F0.305
sI38
F0.305
sI39
F0.305
sI40
F0.305
sI41
F0.305
sI42
F0.305
sI43
F0.305
sI44
F0.305
sI45
F0.305
sI46
F0.305
sI47
F0.305
sI48
F0.305
sI49
F0.6950000000000001
sI50
F0.6950000000000001
sI51
F0.305
sI52
F0.305
sI53
F0.305
sI54
F0.305
sI55
F0.305
sI56
F0.305
sI57
F0.305
sI58
F0.305
sI59
F0.305
sI60
F0.305
sI61
F0.26
sI62
F0.26
sI63
F0.26
sI64
F0.26
sI65
F0.26
sI66
F0.26
sI67
F0.26
sI68
F0.26
sI69
F0.26
sI70
F0.26
sI71
F0.26
sI72
F0.26
sI73
F0.26
sI74
F0.26
sI75
F0.26
sI76
F0.26
sI77
F0.26
sI78
F0.26
sI79
F0.26
sI80
F0.26
sI81
F0.26
sI82
F0.26
sI83
F0.26
sI84
F0.26
sI85
F0.26
sI86
F0.26
sI87
F0.26
sI88
F0.26
sI89
F0.26
sI90
F0.26
sI91
F0.26
sI92
F0.26
sI93
F0.26
sI94
F0.26
sI95
F0.26
sI96
F0.26
sI97
F0.26
sI98
F0.26
sI99
F0.26
sI100
F0.26
sI101
F0.26
sI102
F0.26
sI103
F0.26
sI104
F0.26
sI105
F0.26
sI106
F0.26
sI107
F0.26
sI108
F0.26
sI109
F0.26
sI110
F0.26
sI111
F0.26
sI112
F0.26
sI113
F0.26
sI114
F0.26
sI115
F0.26
sI116
F0.26
sI117
F0.26
sI118
F0.26
sI119
F0.26
sI120
F0.26
sI121
F0.26
sI122
F0.26
sI123
F0.26
sI124
F0.26
sI125
F0.26
sI126
F0.26
sI127
F0.26
sI128
F0.26
sI129
F0.26
sI130
F0.26
sI131
F0.26
sI132
F0.26
sI133
F0.26
sI134
F0.26
sI135
F0.26
sI136
F0.26
sI137
F0.26
sI138
F0.26
sI139
F0.26
sI140
F0.26
sI141
F0.26
sI142
F0.26
sI143
F0.26
sI144
F0.26
sI145
F0.26
sI146
F0.26
sI147
F0.26
sI148
F0.26
sI149
F0.26
sI150
F0.26
sI151
F0.26
sI152
F0.26
sI153
F0.26
sI154
F0.26
sI155
F0.26
sI156
F0.26
sI157
F0.26
sI158
F0.26
sI159
F0.26
sI160
F0.26
sF135.91367262577432
F300.0
tp4
a(I1
(dp5
I1
F0.2019327390599676
sI2
F0.2019327390599676
sI3
F0.2019327390599676
sI4
F0.2019327390599676
sI5
F0.2019327390599676
sI6
F0.2019327390599676
sI7
F0.2019327390599676
sI8
F0.2019327390599676
sI9
F0.7980672609400326
sI10
F0.7980672609400326
sI11
F0.2019327390599676
sI12
F0.2019327390599676
sI13
F0.2019327390599676
sI14
F0.2019327390599676
sI15
F0.2019327390599676
sI16
F0.2019327390599676
sI17
F0.2019327390599676
sI18
F0.2019327390599676
sI19
F0.2019327390599676
sI20
F0.2019327390599676
sI21
F0.2019327390599676
sI22
F0.2019327390599676
sI23
F0.2019327390599676
sI24
F0.2019327390599676
sI25
F0.2019327390599676
sI26
F0.2019327390599676
sI27
F0.2019327390599676
sI28
F0.2019327390599676
sI29
F0.7980672609400326
sI30
F0.7980672609400326
sI31
F0.2019327390599676
sI32
F0.2019327390599676
sI33
F0.2019327390599676
sI34
F0.2019327390599676
sI35
F0.2019327390599676
sI36
F0.2019327390599676
sI37
F0.2019327390599676
sI38
F0.2019327390599676
sI39
F0.2019327390599676
sI40
F0.2019327390599676
sI41
F0.1297856564019449
sI42
F0.1297856564019449
sI43
F0.1297856564019449
sI44
F0.1297856564019449
sI45
F0.1297856564019449
sI46
F0.1297856564019449
sI47
F0.1297856564019449
sI48
F0.1297856564019449
sI49
F0.4127356396866841
sI50
F0.4127356396866841
sI51
F0.1297856564019449
sI52
F0.1297856564019449
sI53
F0.1297856564019449
sI54
F0.1297856564019449
sI55
F0.1297856564019449
sI56
F0.1297856564019449
sI57
F0.1297856564019449
sI58
F0.1297856564019449
sI59
F0.1297856564019449
sI60
F0.1297856564019449
sI61
F0.10763354037267081
sI62
F0.10763354037267081
sI63
F0.10763354037267081
sI64
F0.10763354037267081
sI65
F0.10763354037267081
sI66
F0.10763354037267081
sI67
F0.10763354037267081
sI68
F0.10763354037267081
sI69
F0.10763354037267081
sI70
F0.10763354037267081
sI71
F0.10763354037267081
sI72
F0.10763354037267081
sI73
F0.10763354037267081
sI74
F0.10763354037267081
sI75
F0.10763354037267081
sI76
F0.10763354037267081
sI77
F0.10763354037267081
sI78
F0.10763354037267081
sI79
F0.10763354037267081
sI80
F0.10763354037267081
sI81
F0.10763354037267081
sI82
F0.10763354037267081
sI83
F0.10763354037267081
sI84
F0.10763354037267081
sI85
F0.10763354037267081
sI86
F0.10763354037267081
sI87
F0.10763354037267081
sI88
F0.10763354037267081
sI89
F0.10763354037267081
sI90
F0.10763354037267081
sI91
F0.10763354037267081
sI92
F0.10763354037267081
sI93
F0.10763354037267081
sI94
F0.10763354037267081
sI95
F0.10763354037267081
sI96
F0.10763354037267081
sI97
F0.10763354037267081
sI98
F0.10763354037267081
sI99
F0.10763354037267081
sI100
F0.10763354037267081
sI101
F0.10763354037267081
sI102
F0.10763354037267081
sI103
F0.10763354037267081
sI104
F0.10763354037267081
sI105
F0.10763354037267081
sI106
F0.10763354037267081
sI107
F0.10763354037267081
sI108
F0.10763354037267081
sI109
F0.10763354037267081
sI110
F0.10763354037267081
sI111
F0.10763354037267081
sI112
F0.10763354037267081
sI113
F0.10763354037267081
sI114
F0.10763354037267081
sI115
F0.10763354037267081
sI116
F0.10763354037267081
sI117
F0.10763354037267081
sI118
F0.10763354037267081
sI119
F0.10763354037267081
sI120
F0.10763354037267081
sI121
F0.10763354037267081
sI122
F0.10763354037267081
sI123
F0.10763354037267081
sI124
F0.10763354037267081
sI125
F0.10763354037267081
sI126
F0.10763354037267081
sI127
F0.10763354037267081
sI128
F0.10763354037267081
sI129
F0.10763354037267081
sI130
F0.10763354037267081
sI131
F0.10763354037267081
sI132
F0.10763354037267081
sI133
F0.10763354037267081
sI134
F0.10763354037267081
sI135
F0.10763354037267081
sI136
F0.10763354037267081
sI137
F0.10763354037267081
sI138
F0.10763354037267081
sI139
F0.10763354037267081
sI140
F0.10763354037267081
sI141
F0.10763354037267081
sI142
F0.10763354037267081
sI143
F0.10763354037267081
sI144
F0.10763354037267081
sI145
F0.10763354037267081
sI146
F0.10763354037267081
sI147
F0.10763354037267081
sI148
F0.10763354037267081
sI149
F0.10763354037267081
sI150
F0.10763354037267081
sI151
F0.10763354037267081
sI152
F0.10763354037267081
sI153
F0.10763354037267081
sI154
F0.10763354037267081
sI155
F0.10763354037267081
sI156
F0.10763354037267081
sI157
F0.10763354037267081
sI158
F0.10763354037267081
sI159
F0.10763354037267081
sI160
F0.10763354037267081
sF90.28384877300887
F600.0
tp6
a(I4
(dp7
I1
F0.08798129956353853
sI2
F0.08798129956353853
sI3
F0.08798129956353853
sI4
F0.08798129956353853
sI5
F0.08798129956353853
sI6
F0.08798129956353853
sI7
F0.08798129956353853
sI8
F0.08798129956353853
sI9
F0.9120187004364616
sI10
F0.9120187004364616
sI11
F0.08798129956353853
sI12
F0.08798129956353853
sI13
F0.08798129956353853
sI14
F0.08798129956353853
sI15
F0.08798129956353853
sI16
F0.08798129956353853
sI17
F0.08798129956353853
sI18
F0.08798129956353853
sI19
F0.08798129956353853
sI20
F0.08798129956353853
sI21
F0.08798129956353853
sI22
F0.08798129956353853
sI23
F0.08798129956353853
sI24
F0.08798129956353853
sI25
F0.08798129956353853
sI26
F0.08798129956353853
sI27
F0.08798129956353853
sI28
F0.08798129956353853
sI29
F0.9120187004364616
sI30
F0.9120187004364616
sI31
F0.08798129956353853
sI32
F0.08798129956353853
sI33
F0.08798129956353853
sI34
F0.08798129956353853
sI35
F0.08798129956353853
sI36
F0.08798129956353853
sI37
F0.08798129956353853
sI38
F0.08798129956353853
sI39
F0.08798129956353853
sI40
F0.08798129956353853
sI41
F0.054713373377996366
sI42
F0.054713373377996366
sI43
F0.054713373377996366
sI44
F0.054713373377996366
sI45
F0.054713373377996366
sI46
F0.054713373377996366
sI47
F0.054713373377996366
sI48
F0.054713373377996366
sI49
F0.6726418308667904
sI50
F0.6726418308667904
sI51
F0.054713373377996366
sI52
F0.054713373377996366
sI53
F0.054713373377996366
sI54
F0.054713373377996366
sI55
F0.054713373377996366
sI56
F0.054713373377996366
sI57
F0.054713373377996366
sI58
F0.054713373377996366
sI59
F0.054713373377996366
sI60
F0.054713373377996366
sI61
F0.04494376141626821
sI62
F0.04494376141626821
sI63
F0.04494376141626821
sI64
F0.04494376141626821
sI65
F0.04494376141626821
sI66
F0.04494376141626821
sI67
F0.04494376141626821
sI68
F0.04494376141626821
sI69
F0.28188438248658754
sI70
F0.28188438248658754
sI71
F0.04494376141626821
sI72
F0.04494376141626821
sI73
F0.04494376141626821
sI74
F0.04494376141626821
sI75
F0.04494376141626821
sI76
F0.04494376141626821
sI77
F0.04494376141626821
sI78
F0.04494376141626821
sI79
F0.04494376141626821
sI80
F0.04494376141626821
sI81
F0.04494376141626821
sI82
F0.04494376141626821
sI83
F0.04494376141626821
sI84
F0.04494376141626821
sI85
F0.04494376141626821
sI86
F0.04494376141626821
sI87
F0.04494376141626821
sI88
F0.04494376141626821
sI89
F0.28188438248658754
sI90
F0.28188438248658754
sI91
F0.04494376141626821
sI92
F0.04494376141626821
sI93
F0.04494376141626821
sI94
F0.04494376141626821
sI95
F0.04494376141626821
sI96
F0.04494376141626821
sI97
F0.04494376141626821
sI98
F0.04494376141626821
sI99
F0.04494376141626821
sI100
F0.04494376141626821
sI101
F0.0566980949705937
sI102
F0.0566980949705937
sI103
F0.0566980949705937
sI104
F0.0566980949705937
sI105
F0.0566980949705937
sI106
F0.0566980949705937
sI107
F0.0566980949705937
sI108
F0.0566980949705937
sI109
F0.0566980949705937
sI110
F0.0566980949705937
sI111
F0.0566980949705937
sI112
F0.0566980949705937
sI113
F0.0566980949705937
sI114
F0.0566980949705937
sI115
F0.0566980949705937
sI116
F0.0566980949705937
sI117
F0.0566980949705937
sI118
F0.0566980949705937
sI119
F0.0566980949705937
sI120
F0.0566980949705937
sI121
F0.0566980949705937
sI122
F0.0566980949705937
sI123
F0.0566980949705937
sI124
F0.0566980949705937
sI125
F0.0566980949705937
sI126
F0.0566980949705937
sI127
F0.0566980949705937
sI128
F0.0566980949705937
sI129
F0.0566980949705937
sI130
F0.0566980949705937
sI131
F0.0566980949705937
sI132
F0.0566980949705937
sI133
F0.0566980949705937
sI134
F0.0566980949705937
sI135
F0.0566980949705937
sI136
F0.0566980949705937
sI137
F0.0566980949705937
sI138
F0.0566980949705937
sI139
F0.0566980949705937
sI140
F0.0566980949705937
sI141
F0.0566980949705937
sI142
F0.0566980949705937
sI143
F0.0566980949705937
sI144
F0.0566980949705937
sI145
F0.0566980949705937
sI146
F0.0566980949705937
sI147
F0.0566980949705937
sI148
F0.0566980949705937
sI149
F0.0566980949705937
sI150
F0.0566980949705937
sI151
F0.0566980949705937
sI152
F0.0566980949705937
sI153
F0.0566980949705937
sI154
F0.0566980949705937
sI155
F0.0566980949705937
sI156
F0.0566980949705937
sI157
F0.0566980949705937
sI158
F0.0566980949705937
sI159
F0.0566980949705937
sI160
F0.0566980949705937
sF56.32825196653021
F1300.0
tp8
a(I5
(dp9
I1
F0.033214052979782825
sI2
F0.033214052979782825
sI3
F0.033214052979782825
sI4
F0.033214052979782825
sI5
F0.033214052979782825
sI6
F0.033214052979782825
sI7
F0.033214052979782825
sI8
F0.033214052979782825
sI9
F0.9667859470202173
sI10
F0.9667859470202173
sI11
F0.033214052979782825
sI12
F0.033214052979782825
sI13
F0.033214052979782825
sI14
F0.033214052979782825
sI15
F0.033214052979782825
sI16
F0.033214052979782825
sI17
F0.033214052979782825
sI18
F0.033214052979782825
sI19
F0.033214052979782825
sI20
F0.033214052979782825
sI21
F0.033214052979782825
sI22
F0.033214052979782825
sI23
F0.033214052979782825
sI24
F0.033214052979782825
sI25
F0.033214052979782825
sI26
F0.033214052979782825
sI27
F0.033214052979782825
sI28
F0.033214052979782825
sI29
F0.9667859470202173
sI30
F0.9667859470202173
sI31
F0.033214052979782825
sI32
F0.033214052979782825
sI33
F0.033214052979782825
sI34
F0.033214052979782825
sI35
F0.033214052979782825
sI36
F0.033214052979782825
sI37
F0.033214052979782825
sI38
F0.033214052979782825
sI39
F0.033214052979782825
sI40
F0.033214052979782825
sI41
F0.020331110856150164
sI42
F0.020331110856150164
sI43
F0.020331110856150164
sI44
F0.020331110856150164
sI45
F0.020331110856150164
sI46
F0.020331110856150164
sI47
F0.020331110856150164
sI48
F0.020331110856150164
sI49
F0.8586957069070983
sI50
F0.8586957069070983
sI51
F0.020331110856150164
sI52
F0.020331110856150164
sI53
F0.020331110856150164
sI54
F0.020331110856150164
sI55
F0.020331110856150164
sI56
F0.020331110856150164
sI57
F0.020331110856150164
sI58
F0.020331110856150164
sI59
F0.020331110856150164
sI60
F0.020331110856150164
sI61
F0.01662527175880109
sI62
F0.01662527175880109
sI63
F0.01662527175880109
sI64
F0.01662527175880109
sI65
F0.01662527175880109
sI66
F0.01662527175880109
sI67
F0.01662527175880109
sI68
F0.01662527175880109
sI69
F0.5615605627440416
sI70
F0.5615605627440416
sI71
F0.01662527175880109
sI72
F0.01662527175880109
sI73
F0.01662527175880109
sI74
F0.01662527175880109
sI75
F0.01662527175880109
sI76
F0.01662527175880109
sI77
F0.01662527175880109
sI78
F0.01662527175880109
sI79
F0.01662527175880109
sI80
F0.01662527175880109
sI81
F0.01662527175880109
sI82
F0.01662527175880109
sI83
F0.01662527175880109
sI84
F0.01662527175880109
sI85
F0.01662527175880109
sI86
F0.01662527175880109
sI87
F0.01662527175880109
sI88
F0.01662527175880109
sI89
F0.5615605627440416
sI90
F0.5615605627440416
sI91
F0.01662527175880109
sI92
F0.01662527175880109
sI93
F0.01662527175880109
sI94
F0.01662527175880109
sI95
F0.01662527175880109
sI96
F0.01662527175880109
sI97
F0.01662527175880109
sI98
F0.01662527175880109
sI99
F0.01662527175880109
sI100
F0.01662527175880109
sI101
F0.021088152144632624
sI102
F0.021088152144632624
sI103
F0.021088152144632624
sI104
F0.021088152144632624
sI105
F0.021088152144632624
sI106
F0.021088152144632624
sI107
F0.021088152144632624
sI108
F0.021088152144632624
sI109
F0.17325513255444588
sI110
F0.17325513255444588
sI111
F0.021088152144632624
sI112
F0.021088152144632624
sI113
F0.021088152144632624
sI114
F0.021088152144632624
sI115
F0.021088152144632624
sI116
F0.021088152144632624
sI117
F0.021088152144632624
sI118
F0.021088152144632624
sI119
F0.021088152144632624
sI120
F0.021088152144632624
sI121
F0.03575106977885189
sI122
F0.03575106977885189
sI123
F0.03575106977885189
sI124
F0.03575106977885189
sI125
F0.03575106977885189
sI126
F0.03575106977885189
sI127
F0.03575106977885189
sI128
F0.03575106977885189
sI129
F0.03575106977885189
sI130
F0.03575106977885189
sI131
F0.03575106977885189
sI132
F0.03575106977885189
sI133
F0.03575106977885189
sI134
F0.03575106977885189
sI135
F0.03575106977885189
sI136
F0.03575106977885189
sI137
F0.03575106977885189
sI138
F0.03575106977885189
sI139
F0.03575106977885189
sI140
F0.03575106977885189
sI141
F0.03575106977885189
sI142
F0.03575106977885189
sI143
F0.03575106977885189
sI144
F0.03575106977885189
sI145
F0.03575106977885189
sI146
F0.03575106977885189
sI147
F0.03575106977885189
sI148
F0.03575106977885189
sI149
F0.03575106977885189
sI150
F0.03575106977885189
sI151
F0.03575106977885189
sI152
F0.03575106977885189
sI153
F0.03575106977885189
sI154
F0.03575106977885189
sI155
F0.03575106977885189
sI156
F0.03575106977885189
sI157
F0.03575106977885189
sI158
F0.03575106977885189
sI159
F0.03575106977885189
sI160
F0.03575106977885189
sF33.3987045377423
F1600.0
tp10
a(I8
(dp11
I1
F0.01716008616513066
sI2
F0.01716008616513066
sI3
F0.015925165640926647
sI4
F0.015925165640926647
sI5
F0.015925165640926647
sI6
F0.09453659026806191
sI7
F0.09453659026806191
sI8
F0.014690245116722634
sI9
F0.9010832284970612
sI10
F0.9010832284970612
sI11
F0.014690245116722634
sI12
F0.014690245116722634
sI13
F0.014690245116722634
sI14
F0.014690245116722634
sI15
F0.013455324592518622
sI16
F0.013455324592518622
sI17
F0.013455324592518622
sI18
F0.013455324592518622
sI19
F0.013455324592518622
sI20
F0.013455324592518622
sI21
F0.01716008616513066
sI22
F0.01716008616513066
sI23
F0.015925165640926647
sI24
F0.015925165640926647
sI25
F0.015925165640926647
sI26
F0.09453659026806191
sI27
F0.09453659026806191
sI28
F0.014690245116722634
sI29
F0.9010832284970612
sI30
F0.9010832284970612
sI31
F0.014690245116722634
sI32
F0.014690245116722634
sI33
F0.014690245116722634
sI34
F0.014690245116722634
sI35
F0.013455324592518622
sI36
F0.013455324592518622
sI37
F0.013455324592518622
sI38
F0.013455324592518622
sI39
F0.013455324592518622
sI40
F0.013455324592518622
sI41
F0.010470851908946978
sI42
F0.010470851908946978
sI43
F0.009712370451469811
sI44
F0.009712370451469811
sI45
F0.009712370451469811
sI46
F0.05975387438333021
sI47
F0.05975387438333021
sI48
F0.008953888993992642
sI49
F0.6669640840477465
sI50
F0.6669640840477465
sI51
F0.008953888993992642
sI52
F0.008953888993992642
sI53
F0.008953888993992642
sI54
F0.008953888993992642
sI55
F0.008195407536515474
sI56
F0.008195407536515474
sI57
F0.008195407536515474
sI58
F0.008195407536515474
sI59
F0.008195407536515474
sI60
F0.008195407536515474
sI61
F0.008554563320342814
sI62
F0.008554563320342814
sI63
F0.007933739594307562
sI64
F0.007933739594307562
sI65
F0.007933739594307562
sI66
F0.049326883612037346
sI67
F0.049326883612037346
sI68
F0.0073129158682723105
sI69
F0.32229619650450564
sI70
F0.32229619650450564
sI71
F0.0073129158682723105
sI72
F0.0073129158682723105
sI73
F0.0073129158682723105
sI74
F0.0073129158682723105
sI75
F0.006692092142237057
sI76
F0.006692092142237057
sI77
F0.006692092142237057
sI78
F0.006692092142237057
sI79
F0.006692092142237057
sI80
F0.006692092142237057
sI81
F0.008554563320342814
sI82
F0.008554563320342814
sI83
F0.007933739594307562
sI84
F0.007933739594307562
sI85
F0.007933739594307562
sI86
F0.007933739594307562
sI87
F0.007933739594307562
sI88
F0.0073129158682723105
sI89
F0.32229619650450564
sI90
F0.32229619650450564
sI91
F0.0073129158682723105
sI92
F0.0073129158682723105
sI93
F0.0073129158682723105
sI94
F0.0073129158682723105
sI95
F0.006692092142237057
sI96
F0.006692092142237057
sI97
F0.006692092142237057
sI98
F0.006692092142237057
sI99
F0.006692092142237057
sI100
F0.006692092142237057
sI101
F0.010862748019096116
sI102
F0.010862748019096116
sI103
F0.010076178470977925
sI104
F0.010076178470977925
sI105
F0.010076178470977925
sI106
F0.010076178470977925
sI107
F0.010076178470977925
sI108
F0.009289608922859731
sI109
F0.08065073431098088
sI110
F0.08065073431098088
sI111
F0.009289608922859731
sI112
F0.009289608922859731
sI113
F0.009289608922859731
sI114
F0.009289608922859731
sI115
F0.008503039374741537
sI116
F0.008503039374741537
sI117
F0.008503039374741537
sI118
F0.008503039374741537
sI119
F0.008503039374741537
sI120
F0.008503039374741537
sI121
F0.018482488324018453
sI122
F0.018482488324018453
sI123
F0.017154135904415883
sI124
F0.017154135904415883
sI125
F0.017154135904415883
sI126
F0.017154135904415883
sI127
F0.017154135904415883
sI128
F0.01582578348481331
sI129
F0.01582578348481331
sI130
F0.01582578348481331
sI131
F0.01582578348481331
sI132
F0.01582578348481331
sI133
F0.01582578348481331
sI134
F0.01582578348481331
sI135
F0.014497431065210736
sI136
F0.014497431065210736
sI137
F0.014497431065210736
sI138
F0.014497431065210736
sI139
F0.014497431065210736
sI140
F0.014497431065210736
sI141
F0.018482488324018453
sI142
F0.018482488324018453
sI143
F0.017154135904415883
sI144
F0.017154135904415883
sI145
F0.017154135904415883
sI146
F0.017154135904415883
sI147
F0.017154135904415883
sI148
F0.01582578348481331
sI149
F0.01582578348481331
sI150
F0.01582578348481331
sI151
F0.01582578348481331
sI152
F0.01582578348481331
sI153
F0.01582578348481331
sI154
F0.01582578348481331
sI155
F0.014497431065210736
sI156
F0.014497431065210736
sI157
F0.014497431065210736
sI158
F0.014497431065210736
sI159
F0.014497431065210736
sI160
F0.014497431065210736
sF24.151710841498183
F2300.0
tp12
a(I9
(dp13
I1
F0.013315846591604232
sI2
F0.013315846591604232
sI3
F0.009977291958130888
sI4
F0.009977291958130888
sI5
F0.009977291958130888
sI6
F0.059987168077645196
sI7
F0.03925751476339516
sI8
F0.005908829163018834
sI9
F0.7361190231518513
sI10
F0.7361190231518513
sI11
F0.005908829163018834
sI12
F0.005908829163018834
sI13
F0.005908829163018834
sI14
F0.005908829163018834
sI15
F0.004906703482830921
sI16
F0.004906703482830921
sI17
F0.004906703482830921
sI18
F0.004906703482830921
sI19
F0.004906703482830921
sI20
F0.004906703482830921
sI21
F0.013315846591604232
sI22
F0.013315846591604232
sI23
F0.009977291958130888
sI24
F0.009977291958130888
sI25
F0.009977291958130888
sI26
F0.059987168077645196
sI27
F0.03925751476339516
sI28
F0.005908829163018834
sI29
F0.7361190231518513
sI30
F0.7361190231518513
sI31
F0.005908829163018834
sI32
F0.005908829163018834
sI33
F0.005908829163018834
sI34
F0.005908829163018834
sI35
F0.004906703482830921
sI36
F0.004906703482830921
sI37
F0.004906703482830921
sI38
F0.004906703482830921
sI39
F0.004906703482830921
sI40
F0.004906703482830921
sI41
F0.00812112622360783
sI42
F0.00812112622360783
sI43
F0.006079139873607748
sI44
F0.006079139873607748
sI45
F0.006079139873607748
sI46
F0.03769661345442377
sI47
F0.02446225689707991
sI48
F0.0035936627211951176
sI49
F0.40029752357697496
sI50
F0.40029752357697496
sI51
F0.0035936627211951176
sI52
F0.0035936627211951176
sI53
F0.0035936627211951176
sI54
F0.0035936627211951176
sI55
F0.0029816058087462206
sI56
F0.0029816058087462206
sI57
F0.0029816058087462206
sI58
F0.0029816058087462206
sI59
F0.0029816058087462206
sI60
F0.0029816058087462206
sI61
F0.006633929560490693
sI62
F0.006633929560490693
sI63
F0.004964523590493449
sI64
F0.004964523590493449
sI65
F0.004964523590493449
sI66
F0.031066172314465384
sI67
F0.020109745535922208
sI68
F0.002933232397845109
sI69
F0.14946665324295932
sI70
F0.14946665324295932
sI71
F0.002933232397845109
sI72
F0.002933232397845109
sI73
F0.002933232397845109
sI74
F0.002933232397845109
sI75
F0.002433056871198434
sI76
F0.002433056871198434
sI77
F0.002433056871198434
sI78
F0.002433056871198434
sI79
F0.002433056871198434
sI80
F0.002433056871198434
sI81
F0.006633929560490693
sI82
F0.006633929560490693
sI83
F0.004964523590493449
sI84
F0.004964523590493449
sI85
F0.004964523590493449
sI86
F0.004964523590493449
sI87
F0.003182993988204981
sI88
F0.002933232397845109
sI89
F0.14946665324295932
sI90
F0.14946665324295932
sI91
F0.002933232397845109
sI92
F0.002933232397845109
sI93
F0.002933232397845109
sI94
F0.002933232397845109
sI95
F0.002433056871198434
sI96
F0.002433056871198434
sI97
F0.002433056871198434
sI98
F0.002433056871198434
sI99
F0.002433056871198434
sI100
F0.002433056871198434
sI101
F0.008425321695088316
sI102
F0.008425321695088316
sI103
F0.006307202402438743
sI104
F0.006307202402438743
sI105
F0.006307202402438743
sI106
F0.006307202402438743
sI107
F0.004045816761315234
sI108
F0.0037288789141779995
sI109
F0.0332987915769173
sI110
F0.0332987915769173
sI111
F0.0037288789141779995
sI112
F0.0037288789141779995
sI113
F0.0037288789141779995
sI114
F0.0037288789141779995
sI115
F0.0030939488109223926
sI116
F0.0030939488109223926
sI117
F0.0030939488109223926
sI118
F0.0030939488109223926
sI119
F0.0030939488109223926
sI120
F0.0030939488109223926
sI121
F0.014343413686413654
sI122
F0.014343413686413654
sI123
F0.01074928177865416
sI124
F0.01074928177865416
sI125
F0.01074928177865416
sI126
F0.01074928177865416
sI127
F0.006906369303197124
sI128
F0.006368332974600514
sI129
F0.006368332974600514
sI130
F0.006368332974600514
sI131
F0.006368332974600514
sI132
F0.006368332974600514
sI133
F0.006368332974600514
sI134
F0.006368332974600514
sI135
F0.005289183698592392
sI136
F0.005289183698592392
sI137
F0.005289183698592392
sI138
F0.005289183698592392
sI139
F0.005289183698592392
sI140
F0.005289183698592392
sI141
F0.014343413686413654
sI142
F0.014343413686413654
sI143
F0.01074928177865416
sI144
F0.01074928177865416
sI145
F0.01074928177865416
sI146
F0.01074928177865416
sI147
F0.006906369303197124
sI148
F0.006368332974600514
sI149
F0.006368332974600514
sI150
F0.006368332974600514
sI151
F0.006368332974600514
sI152
F0.006368332974600514
sI153
F0.006368332974600514
sI154
F0.006368332974600514
sI155
F0.005289183698592392
sI156
F0.005289183698592392
sI157
F0.005289183698592392
sI158
F0.005289183698592392
sI159
F0.005289183698592392
sI160
F0.005289183698592392
sF17.10241869063182
F2600.0
tp14
a(I7
(dp15
I1
F0.005353203700511233
sI2
F0.005353203700511233
sI3
F0.004005961314233501
sI4
F0.004005961314233501
sI5
F0.004005961314233501
sI6
F0.024560064729140314
sI7
F0.01739846190298585
sI8
F0.0025900444322372014
sI9
F0.4921766850402771
sI10
F0.4921766850402771
sI11
F0.0025900444322372014
sI12
F0.018894939566536827
sI13
F0.018894939566536827
sI14
F0.002811296747622644
sI15
F0.002333855766718529
sI16
F0.002333855766718529
sI17
F0.002333855766718529
sI18
F0.002333855766718529
sI19
F0.0025176306035837
sI20
F0.0025176306035837
sI21
F0.005353203700511233
sI22
F0.005353203700511233
sI23
F0.004005961314233501
sI24
F0.004005961314233501
sI25
F0.004005961314233501
sI26
F0.024560064729140314
sI27
F0.01739846190298585
sI28
F0.0025900444322372014
sI29
F0.4921766850402771
sI30
F0.4921766850402771
sI31
F0.0025900444322372014
sI32
F0.018894939566536827
sI33
F0.018894939566536827
sI34
F0.002811296747622644
sI35
F0.002333855766718529
sI36
F0.002333855766718529
sI37
F0.002333855766718529
sI38
F0.002333855766718529
sI39
F0.0025176306035837
sI40
F0.0025176306035837
sI41
F0.0032584040185135604
sI42
F0.0032584040185135604
sI43
F0.002437224730733826
sI44
F0.002437224730733826
sI45
F0.002437224730733826
sI46
F0.015298002342579487
sI47
F0.01078796040932528
sI48
F0.0015740484377130173
sI49
F0.20733112264821346
sI50
F0.20733112264821346
sI51
F0.0015740484377130173
sI52
F0.01156441384392921
sI53
F0.01156441384392921
sI54
F0.0017086893899451575
sI55
F0.0014174321832079537
sI56
F0.0014174321832079537
sI57
F0.0014174321832079537
sI58
F0.0014174321832079537
sI59
F0.0015291588707464013
sI60
F0.0015291588707464013
sI61
F0.0026602061863265987
sI62
F0.0026602061863265987
sI63
F0.0019895202271012005
sI64
F0.0019895202271012005
sI65
F0.0019895202271012005
sI66
F0.012574688444969447
sI67
F0.008855753534765788
sI68
F0.0012845017583806068
sI69
F0.06892989922163423
sI70
F0.06892989922163423
sI71
F0.0012845017583806068
sI72
F0.009456246080128745
sI73
F0.009456246080128745
sI74
F0.001394417134344907
sI75
F0.0011564804034721527
sI76
F0.0011564804034721527
sI77
F0.0011564804034721527
sI78
F0.0011564804034721527
sI79
F0.0012476644368811726
sI80
F0.0012476644368811726
sI81
F0.0026602061863265987
sI82
F0.0026602061863265987
sI83
F0.0019895202271012005
sI84
F0.0019895202271012005
sI85
F0.0019895202271012005
sI86
F0.0019895202271012005
sI87
F0.001393988014430172
sI88
F0.0012845017583806068
sI89
F0.06892989922163423
sI90
F0.06892989922163423
sI91
F0.0012845017583806068
sI92
F0.0012845017583806068
sI93
F0.0012845017583806068
sI94
F0.001394417134344907
sI95
F0.0011564804034721527
sI96
F0.0011564804034721527
sI97
F0.0011564804034721527
sI98
F0.0011564804034721527
sI99
F0.0012476644368811726
sI100
F0.0012476644368811726
sI101
F0.0033808442967865407
sI102
F0.0033808442967865407
sI103
F0.002528876442333114
sI104
F0.002528876442333114
sI105
F0.002528876442333114
sI106
F0.002528876442333114
sI107
F0.0017723536780010903
sI108
F0.0016333453343185455
sI109
F0.01472814151579819
sI110
F0.01472814151579819
sI111
F0.0016333453343185455
sI112
F0.0016333453343185455
sI113
F0.0016333453343185455
sI114
F0.0017730475729758426
sI115
F0.001470885000531899
sI116
F0.001470885000531899
sI117
F0.001470885000531899
sI118
F0.001470885000531899
sI119
F0.0015868181298455057
sI120
F0.0015868181298455057
sI121
F0.005768561090713107
sI122
F0.005768561090713107
sI123
F0.004317185636319797
sI124
F0.004317185636319797
sI125
F0.004317185636319797
sI126
F0.004317185636319797
sI127
F0.0030282790169031066
sI128
F0.0027918761871111265
sI129
F0.0027918761871111265
sI130
F0.0027918761871111265
sI131
F0.0027918761871111265
sI132
F0.0027918761871111265
sI133
F0.0027918761871111265
sI134
F0.0030303066396104193
sI135
F0.0025160486600551805
sI136
F0.0025160486600551805
sI137
F0.0025160486600551805
sI138
F0.0025160486600551805
sI139
F0.0027141297342364095
sI140
F0.0027141297342364095
sI141
F0.005768561090713107
sI142
F0.005768561090713107
sI143
F0.004317185636319797
sI144
F0.004317185636319797
sI145
F0.004317185636319797
sI146
F0.004317185636319797
sI147
F0.0030282790169031066
sI148
F0.0027918761871111265
sI149
F0.0027918761871111265
sI150
F0.0027918761871111265
sI151
F0.0027918761871111265
sI152
F0.0027918761871111265
sI153
F0.0027918761871111265
sI154
F0.0030303066396104193
sI155
F0.0025160486600551805
sI156
F0.0025160486600551805
sI157
F0.0025160486600551805
sI158
F0.0025160486600551805
sI159
F0.0027141297342364095
sI160
F0.0027141297342364095
sF12.330237586515905
F3300.0
tp16
a(I6
(dp17
I1
F0.0019451219280033657
sI2
F0.0019451219280033657
sI3
F0.001454726290159775
sI4
F0.001454726290159775
sI5
F0.001454726290159775
sI6
F0.00900096198332083
sI7
F0.007005391061834525
sI8
F0.001037025980896666
sI9
F0.25446705390297375
sI10
F0.25446705390297375
sI11
F0.001037025980896666
sI12
F0.007612298454881845
sI13
F0.06099927303799244
sI14
F0.009483170952590407
sI15
F0.005802185349692245
sI16
F0.005802185349692245
sI17
F0.0014591713948525192
sI18
F0.0014591713948525192
sI19
F0.0019515209308672281
sI20
F0.0019515209308672281
sI21
F0.0019451219280033657
sI22
F0.0019451219280033657
sI23
F0.001454726290159775
sI24
F0.001454726290159775
sI25
F0.001454726290159775
sI26
F0.00900096198332083
sI27
F0.007005391061834525
sI28
F0.001037025980896666
sI29
F0.25446705390297375
sI30
F0.25446705390297375
sI31
F0.001037025980896666
sI32
F0.007612298454881845
sI33
F0.06099927303799244
sI34
F0.009483170952590407
sI35
F0.005802185349692245
sI36
F0.005802185349692245
sI37
F0.0014591713948525192
sI38
F0.0014591713948525192
sI39
F0.0019515209308672281
sI40
F0.0019515209308672281
sI41
F0.0011828677177707463
sI42
F0.0011828677177707463
sI43
F0.0008844423963082445
sI44
F0.0008844423963082445
sI45
F0.0008844423963082445
sI46
F0.005583257110943617
sI47
F0.0043327835735009635
sI48
F0.0006299914586159721
sI49
F0.09056763734056122
sI50
F0.09056763734056122
sI51
F0.0006299914586159721
sI52
F0.004646001399617119
sI53
F0.03807819253904068
sI54
F0.005781658521755097
sI55
F0.0035315768170968037
sI56
F0.0035315768170968037
sI57
F0.0008860836693897295
sI58
F0.0008860836693897295
sI59
F0.0011852298067358024
sI60
F0.0011852298067358024
sI61
F0.0009654548458512571
sI62
F0.0009654548458512571
sI63
F0.0007218328616757729
sI64
F0.0007218328616757729
sI65
F0.0007218328616757729
sI66
F0.0045837653130210935
sI67
F0.003554143723940803
sI68
F0.0005140484337249095
sI69
F0.028323512694367038
sI70
F0.028323512694367038
sI71
F0.0005140484337249095
sI72
F0.0037960073281248456
sI73
F0.03131648000259073
sI74
F0.004722429785234603
sI75
F0.0028832040720402283
sI76
F0.0028832040720402283
sI77
F0.0007229257466681301
sI78
F0.0007229257466681301
sI79
F0.0009670275830893811
sI80
F0.0009670275830893811
sI81
F0.0009654548458512571
sI82
F0.0009654548458512571
sI83
F0.0007218328616757729
sI84
F0.0007218328616757729
sI85
F0.0007218328616757729
sI86
F0.0007218328616757729
sI87
F0.0005578869912187866
sI88
F0.0005140484337249095
sI89
F0.028323512694367038
sI90
F0.028323512694367038
sI91
F0.0005140484337249095
sI92
F0.0005140484337249095
sI93
F0.0005140484337249095
sI94
F0.0005580588189506173
sI95
F0.0007229257466681301
sI96
F0.0007229257466681301
sI97
F0.0007229257466681301
sI98
F0.0007229257466681301
sI99
F0.0009670275830893811
sI100
F0.0009670275830893811
sI101
F0.0012273823619109029
sI102
F0.0012273823619109029
sI103
F0.0009177388847232801
sI104
F0.0009177388847232801
sI105
F0.0009177388847232801
sI106
F0.0009177388847232801
sI107
F0.000709413283998786
sI108
F0.0006537387970908156
sI109
F0.005924157758818211
sI110
F0.005924157758818211
sI111
F0.0006537387970908156
sI112
F0.0006537387970908156
sI113
F0.0006537387970908156
sI114
F0.0007096912117463435
sI115
F0.0009195061777091573
sI116
F0.0009195061777091573
sI117
F0.0009195061777091573
sI118
F0.0009195061777091573
sI119
F0.0012299258564327483
sI120
F0.0012299258564327483
sI121
F0.002096429849709891
sI122
F0.002096429849709891
sI123
F0.0015679598882673159
sI124
F0.0015679598882673159
sI125
F0.0015679598882673159
sI126
F0.0015679598882673159
sI127
F0.0012126903091535187
sI128
F0.0011179221140447614
sI129
F0.0011179221140447614
sI130
F0.0011179221140447614
sI131
F0.0011179221140447614
sI132
F0.0011179221140447614
sI133
F0.0011179221140447614
sI134
F0.001213503207214165
sI135
F0.001573125019034256
sI136
F0.001573125019034256
sI137
F0.001573125019034256
sI138
F0.001573125019034256
sI139
F0.002103865754872333
sI140
F0.002103865754872333
sI141
F0.002096429849709891
sI142
F0.002096429849709891
sI143
F0.0015679598882673159
sI144
F0.0015679598882673159
sI145
F0.0015679598882673159
sI146
F0.0015679598882673159
sI147
F0.0012126903091535187
sI148
F0.0011179221140447614
sI149
F0.0011179221140447614
sI150
F0.0011179221140447614
sI151
F0.0011179221140447614
sI152
F0.0011179221140447614
sI153
F0.0011179221140447614
sI154
F0.001213503207214165
sI155
F0.001573125019034256
sI156
F0.001573125019034256
sI157
F0.001573125019034256
sI158
F0.001573125019034256
sI159
F0.002103865754872333
sI160
F0.002103865754872333
sF8.893678857971674
F3600.0
tp18
a.