(lp0
(I10
(dp1
I1
F0.5
sI2
F0.5
sI3
F0.5
sI4
F0.5
sI5
F0.5
sI6
F0.5
sI7
F0.5
sI8
F0.5
sI9
F0.5
sI10
F0.5
sI11
F0.5
sI12
F0.5
sI13
F0.5
sI14
F0.5
sI15
F0.5
sI16
F0.5
sI17
F0.5
sI18
F0.5
sI19
F0.5
sI20
F0.5
sI21
F0.5
sI22
F0.5
sI23
F0.5
sI24
F0.5
sI25
F0.5
sI26
F0.5
sI27
F0.5
sI28
F0.5
sI29
F0.5
sI30
F0.5
sI31
F0.5
sI32
F0.5
sI33
F0.5
sI34
F0.5
sI35
F0.5
sI36
F0.5
sI37
F0.5
sI38
F0.5
sI39
F0.5
sI40
F0.5
sI41
F0.5
sI42
F0.5
sI43
F0.5
sI44
F0.5
sI45
F0.5
sI46
F0.5
sI47
F0.5
sI48
F0.5
sI49
F0.5
sI50
F0.5
sI51
F0.5
sI52
F0.5
sI53
F0.5
sI54
F0.5
sI55
F0.5
sI56
F0.5
sI57
F0.5
sI58
F0.5
sI59
F0.5
sI60
F0.5
sI61
F0.5
sI62
F0.5
sI63
F0.5
sI64
F0.5
sI65
F0.5
sI66
F0.5
sI67
F0.5
sI68
F0.5
sI69
F0.5
sI70
F0.5
sI71
F0.5
sI72
F0.5
sI73
F0.5
sI74
F0.5
sI75
F0.5
sI76
F0.5
sI77
F0.5
sI78
F0.5
sI79
F0.5
sI80
F0.5
sI81
F0.5
sI82
F0.5
sI83
F0.5
sI84
F0.5
sI85
F0.5
sI86
F0.5
sI87
F0.5
sI88
F0.5
sI89
F0.5
sI90
F0.5
sI91
F0.5
sI92
F0.5
sI93
F0.5
sI94
F0.5
sI95
F0.5
sI96
F0.5
sI97
F0.5
sI98
F0.5
sI99
F0.5
sI100
F0.5
sI101
F0.5
sI102
F0.5
sI103
F0.5
sI104
F0.5
sI105
F0.5
sI106
F0.5
sI107
F0.5
sI108
F0.5
sI109
F0.5
sI110
F0.5
sI111
F0.5
sI112
F0.5
sI113
F0.5
sI114
F0.5
sI115
F0.5
sI116
F0.5
sI117
F0.5
sI118
F0.5
sI119
F0.5
sI120
F0.5
sI121
F0.5
sI122
F0.5
sI123
F0.5
sI124
F0.5
sI125
F0.5
sI126
F0.5
sI127
F0.5
sI128
F0.5
sI129
F0.5
sI130
F0.5
sI131
F0.5
sI132
F0.5
sI133
F0.5
sI134
F0.5
sI135
F0.5
sI136
F0.5
sI137
F0.5
sI138
F0.5
sI139
F0.5
sI140
F0.5
sI141
F0.5
sI142
F0.5
sI143
F0.5
sI144
F0.5
sI145
F0.5
sI146
F0.5
sI147
F0.5
sI148
F0.5
sI149
F0.5
sI150
F0.5
sI151
F0.5
sI152
F0.5
sI153
F0.5
sI154
F0.5
sI155
F0.5
sI156
F0.5
sI157
F0.5
sI158
F0.5
sI159
F0.5
sI160
F0.5
sF160.0
F0.0
(F0.0
F0.0
tp2
tp3
a(I3
(dp4
I1
F0.38
sI2
F0.38
sI3
F0.38
sI4
F0.38
sI5
F0.38
sI6
F0.38
sI7
F0.38
sI8
F0.38
sI9
F0.38
sI10
F0.38
sI11
F0.38
sI12
F0.38
sI13
F0.38
sI14
F0.38
sI15
F0.38
sI16
F0.38
sI17
F0.38
sI18
F0.38
sI19
F0.38
sI20
F0.38
sI21
F0.38
sI22
F0.38
sI23
F0.38
sI24
F0.38
sI25
F0.38
sI26
F0.38
sI27
F0.38
sI28
F0.38
sI29
F0.38
sI30
F0.38
sI31
F0.38
sI32
F0.38
sI33
F0.38
sI34
F0.38
sI35
F0.38
sI36
F0.38
sI37
F0.38
sI38
F0.38
sI39
F0.38
sI40
F0.38
sI41
F0.38
sI42
F0.38
sI43
F0.38
sI44
F0.38
sI45
F0.38
sI46
F0.38
sI47
F0.38
sI48
F0.38
sI49
F0.38
sI50
F0.38
sI51
F0.38
sI52
F0.38
sI53
F0.38
sI54
F0.38
sI55
F0.38
sI56
F0.38
sI57
F0.38
sI58
F0.38
sI59
F0.38
sI60
F0.38
sI61
F0.38
sI62
F0.38
sI63
F0.38
sI64
F0.38
sI65
F0.38
sI66
F0.38
sI67
F0.38
sI68
F0.38
sI69
F0.38
sI70
F0.38
sI71
F0.38
sI72
F0.38
sI73
F0.38
sI74
F0.38
sI75
F0.38
sI76
F0.38
sI77
F0.38
sI78
F0.38
sI79
F0.38
sI80
F0.38
sI81
F0.38
sI82
F0.38
sI83
F0.38
sI84
F0.38
sI85
F0.38
sI86
F0.38
sI87
F0.38
sI88
F0.38
sI89
F0.38
sI90
F0.38
sI91
F0.38
sI92
F0.38
sI93
F0.38
sI94
F0.38
sI95
F0.38
sI96
F0.38
sI97
F0.38
sI98
F0.38
sI99
F0.38
sI100
F0.38
sI101
F0.38
sI102
F0.38
sI103
F0.38
sI104
F0.38
sI105
F0.38
sI106
F0.38
sI107
F0.38
sI108
F0.38
sI109
F0.38
sI110
F0.38
sI111
F0.38
sI112
F0.38
sI113
F0.38
sI114
F0.38
sI115
F0.38
sI116
F0.38
sI117
F0.38
sI118
F0.38
sI119
F0.38
sI120
F0.38
sI121
F0.38
sI122
F0.38
sI123
F0.38
sI124
F0.38
sI125
F0.38
sI126
F0.38
sI127
F0.38
sI128
F0.38
sI129
F0.38
sI130
F0.38
sI131
F0.38
sI132
F0.38
sI133
F0.38
sI134
F0.38
sI135
F0.38
sI136
F0.38
sI137
F0.38
sI138
F0.38
sI139
F0.38
sI140
F0.38
sI141
F0.38
sI142
F0.38
sI143
F0.38
sI144
F0.38
sI145
F0.38
sI146
F0.38
sI147
F0.38
sI148
F0.38
sI149
F0.38
sI150
F0.38
sI151
F0.38
sI152
F0.38
sI153
F0.38
sI154
F0.38
sI155
F0.38
sI156
F0.38
sI157
F0.38
sI158
F0.38
sI159
F0.38
sI160
F0.38
sF153.28672355620733
F0.0
(F6.713276443792665
F0.0
tp5
tp6
a(I1
(dp7
I1
F0.2564335664335664
sI2
F0.2564335664335664
sI3
F0.2564335664335664
sI4
F0.2564335664335664
sI5
F0.2564335664335664
sI6
F0.2564335664335664
sI7
F0.2564335664335664
sI8
F0.2564335664335664
sI9
F0.5451401869158878
sI10
F0.5451401869158878
sI11
F0.2564335664335664
sI12
F0.2564335664335664
sI13
F0.2564335664335664
sI14
F0.2564335664335664
sI15
F0.2564335664335664
sI16
F0.2564335664335664
sI17
F0.2564335664335664
sI18
F0.2564335664335664
sI19
F0.2564335664335664
sI20
F0.2564335664335664
sI21
F0.2564335664335664
sI22
F0.2564335664335664
sI23
F0.2564335664335664
sI24
F0.2564335664335664
sI25
F0.2564335664335664
sI26
F0.2564335664335664
sI27
F0.2564335664335664
sI28
F0.2564335664335664
sI29
F0.5451401869158878
sI30
F0.5451401869158878
sI31
F0.2564335664335664
sI32
F0.2564335664335664
sI33
F0.2564335664335664
sI34
F0.2564335664335664
sI35
F0.2564335664335664
sI36
F0.2564335664335664
sI37
F0.2564335664335664
sI38
F0.2564335664335664
sI39
F0.2564335664335664
sI40
F0.2564335664335664
sI41
F0.16993706293706295
sI42
F0.16993706293706295
sI43
F0.16993706293706295
sI44
F0.16993706293706295
sI45
F0.16993706293706295
sI46
F0.16993706293706295
sI47
F0.16993706293706295
sI48
F0.16993706293706295
sI49
F0.16993706293706295
sI50
F0.16993706293706295
sI51
F0.16993706293706295
sI52
F0.16993706293706295
sI53
F0.16993706293706295
sI54
F0.16993706293706295
sI55
F0.16993706293706295
sI56
F0.16993706293706295
sI57
F0.16993706293706295
sI58
F0.16993706293706295
sI59
F0.16993706293706295
sI60
F0.16993706293706295
sI61
F0.16993706293706295
sI62
F0.16993706293706295
sI63
F0.16993706293706295
sI64
F0.16993706293706295
sI65
F0.16993706293706295
sI66
F0.16993706293706295
sI67
F0.16993706293706295
sI68
F0.16993706293706295
sI69
F0.16993706293706295
sI70
F0.16993706293706295
sI71
F0.16993706293706295
sI72
F0.16993706293706295
sI73
F0.16993706293706295
sI74
F0.16993706293706295
sI75
F0.16993706293706295
sI76
F0.16993706293706295
sI77
F0.16993706293706295
sI78
F0.16993706293706295
sI79
F0.16993706293706295
sI80
F0.16993706293706295
sI81
F0.16993706293706295
sI82
F0.16993706293706295
sI83
F0.16993706293706295
sI84
F0.16993706293706295
sI85
F0.16993706293706295
sI86
F0.16993706293706295
sI87
F0.16993706293706295
sI88
F0.16993706293706295
sI89
F0.16993706293706295
sI90
F0.16993706293706295
sI91
F0.16993706293706295
sI92
F0.16993706293706295
sI93
F0.16993706293706295
sI94
F0.16993706293706295
sI95
F0.16993706293706295
sI96
F0.16993706293706295
sI97
F0.16993706293706295
sI98
F0.16993706293706295
sI99
F0.16993706293706295
sI100
F0.16993706293706295
sI101
F0.16993706293706295
sI102
F0.16993706293706295
sI103
F0.16993706293706295
sI104
F0.16993706293706295
sI105
F0.16993706293706295
sI106
F0.16993706293706295
sI107
F0.16993706293706295
sI108
F0.16993706293706295
sI109
F0.16993706293706295
sI110
F0.16993706293706295
sI111
F0.16993706293706295
sI112
F0.16993706293706295
sI113
F0.16993706293706295
sI114
F0.16993706293706295
sI115
F0.16993706293706295
sI116
F0.16993706293706295
sI117
F0.16993706293706295
sI118
F0.16993706293706295
sI119
F0.16993706293706295
sI120
F0.16993706293706295
sI121
F0.16993706293706295
sI122
F0.16993706293706295
sI123
F0.16993706293706295
sI124
F0.16993706293706295
sI125
F0.16993706293706295
sI126
F0.16993706293706295
sI127
F0.16993706293706295
sI128
F0.16993706293706295
sI129
F0.16993706293706295
sI130
F0.16993706293706295
sI131
F0.16993706293706295
sI132
F0.16993706293706295
sI133
F0.16993706293706295
sI134
F0.16993706293706295
sI135
F0.16993706293706295
sI136
F0.16993706293706295
sI137
F0.16993706293706295
sI138
F0.16993706293706295
sI139
F0.16993706293706295
sI140
F0.16993706293706295
sI141
F0.16993706293706295
sI142
F0.16993706293706295
sI143
F0.16993706293706295
sI144
F0.16993706293706295
sI145
F0.16993706293706295
sI146
F0.16993706293706295
sI147
F0.16993706293706295
sI148
F0.16993706293706295
sI149
F0.16993706293706295
sI150
F0.16993706293706295
sI151
F0.16993706293706295
sI152
F0.16993706293706295
sI153
F0.16993706293706295
sI154
F0.16993706293706295
sI155
F0.16993706293706295
sI156
F0.16993706293706295
sI157
F0.16993706293706295
sI158
F0.16993706293706295
sI159
F0.16993706293706295
sI160
F0.16993706293706295
sF112.45114748541565
F500.0
(F40.83557607079169
I500
tp8
tp9
a(I2
(dp10
I1
F0.14134485632768062
sI2
F0.14134485632768062
sI3
F0.14134485632768062
sI4
F0.14134485632768062
sI5
F0.14134485632768062
sI6
F0.14134485632768062
sI7
F0.14134485632768062
sI8
F0.14134485632768062
sI9
F0.7286124630587749
sI10
F0.7286124630587749
sI11
F0.14134485632768062
sI12
F0.14134485632768062
sI13
F0.14134485632768062
sI14
F0.14134485632768062
sI15
F0.14134485632768062
sI16
F0.14134485632768062
sI17
F0.14134485632768062
sI18
F0.14134485632768062
sI19
F0.14134485632768062
sI20
F0.14134485632768062
sI21
F0.14134485632768062
sI22
F0.14134485632768062
sI23
F0.14134485632768062
sI24
F0.14134485632768062
sI25
F0.14134485632768062
sI26
F0.14134485632768062
sI27
F0.14134485632768062
sI28
F0.14134485632768062
sI29
F0.7286124630587749
sI30
F0.7286124630587749
sI31
F0.14134485632768062
sI32
F0.14134485632768062
sI33
F0.14134485632768062
sI34
F0.14134485632768062
sI35
F0.14134485632768062
sI36
F0.14134485632768062
sI37
F0.14134485632768062
sI38
F0.14134485632768062
sI39
F0.14134485632768062
sI40
F0.14134485632768062
sI41
F0.09112642914151911
sI42
F0.09112642914151911
sI43
F0.09112642914151911
sI44
F0.09112642914151911
sI45
F0.09112642914151911
sI46
F0.09112642914151911
sI47
F0.09112642914151911
sI48
F0.09112642914151911
sI49
F0.3521214276538782
sI50
F0.3521214276538782
sI51
F0.09112642914151911
sI52
F0.09112642914151911
sI53
F0.09112642914151911
sI54
F0.09112642914151911
sI55
F0.09112642914151911
sI56
F0.09112642914151911
sI57
F0.09112642914151911
sI58
F0.09112642914151911
sI59
F0.09112642914151911
sI60
F0.09112642914151911
sI61
F0.0729393598040859
sI62
F0.0729393598040859
sI63
F0.0729393598040859
sI64
F0.0729393598040859
sI65
F0.0729393598040859
sI66
F0.0729393598040859
sI67
F0.0729393598040859
sI68
F0.0729393598040859
sI69
F0.0729393598040859
sI70
F0.0729393598040859
sI71
F0.0729393598040859
sI72
F0.0729393598040859
sI73
F0.0729393598040859
sI74
F0.0729393598040859
sI75
F0.0729393598040859
sI76
F0.0729393598040859
sI77
F0.0729393598040859
sI78
F0.0729393598040859
sI79
F0.0729393598040859
sI80
F0.0729393598040859
sI81
F0.0729393598040859
sI82
F0.0729393598040859
sI83
F0.0729393598040859
sI84
F0.0729393598040859
sI85
F0.0729393598040859
sI86
F0.0729393598040859
sI87
F0.0729393598040859
sI88
F0.0729393598040859
sI89
F0.0729393598040859
sI90
F0.0729393598040859
sI91
F0.0729393598040859
sI92
F0.0729393598040859
sI93
F0.0729393598040859
sI94
F0.0729393598040859
sI95
F0.0729393598040859
sI96
F0.0729393598040859
sI97
F0.0729393598040859
sI98
F0.0729393598040859
sI99
F0.0729393598040859
sI100
F0.0729393598040859
sI101
F0.0729393598040859
sI102
F0.0729393598040859
sI103
F0.0729393598040859
sI104
F0.0729393598040859
sI105
F0.0729393598040859
sI106
F0.0729393598040859
sI107
F0.0729393598040859
sI108
F0.0729393598040859
sI109
F0.0729393598040859
sI110
F0.0729393598040859
sI111
F0.0729393598040859
sI112
F0.0729393598040859
sI113
F0.0729393598040859
sI114
F0.0729393598040859
sI115
F0.0729393598040859
sI116
F0.0729393598040859
sI117
F0.0729393598040859
sI118
F0.0729393598040859
sI119
F0.0729393598040859
sI120
F0.0729393598040859
sI121
F0.0729393598040859
sI122
F0.0729393598040859
sI123
F0.0729393598040859
sI124
F0.0729393598040859
sI125
F0.0729393598040859
sI126
F0.0729393598040859
sI127
F0.0729393598040859
sI128
F0.0729393598040859
sI129
F0.0729393598040859
sI130
F0.0729393598040859
sI131
F0.0729393598040859
sI132
F0.0729393598040859
sI133
F0.0729393598040859
sI134
F0.0729393598040859
sI135
F0.0729393598040859
sI136
F0.0729393598040859
sI137
F0.0729393598040859
sI138
F0.0729393598040859
sI139
F0.0729393598040859
sI140
F0.0729393598040859
sI141
F0.0729393598040859
sI142
F0.0729393598040859
sI143
F0.0729393598040859
sI144
F0.0729393598040859
sI145
F0.0729393598040859
sI146
F0.0729393598040859
sI147
F0.0729393598040859
sI148
F0.0729393598040859
sI149
F0.0729393598040859
sI150
F0.0729393598040859
sI151
F0.0729393598040859
sI152
F0.0729393598040859
sI153
F0.0729393598040859
sI154
F0.0729393598040859
sI155
F0.0729393598040859
sI156
F0.0729393598040859
sI157
F0.0729393598040859
sI158
F0.0729393598040859
sI159
F0.0729393598040859
sI160
F0.0729393598040859
sF72.0084520084525
F800.0
(F40.44269547696315
I300
tp11
tp12
a(I4
(dp13
I1
F0.05989005017232722
sI2
F0.05989005017232722
sI3
F0.05989005017232722
sI4
F0.05989005017232722
sI5
F0.05989005017232722
sI6
F0.05989005017232722
sI7
F0.05989005017232722
sI8
F0.05989005017232722
sI9
F0.8775739956763505
sI10
F0.8775739956763505
sI11
F0.05989005017232722
sI12
F0.05989005017232722
sI13
F0.05989005017232722
sI14
F0.05989005017232722
sI15
F0.05989005017232722
sI16
F0.05989005017232722
sI17
F0.05989005017232722
sI18
F0.05989005017232722
sI19
F0.05989005017232722
sI20
F0.05989005017232722
sI21
F0.05989005017232722
sI22
F0.05989005017232722
sI23
F0.05989005017232722
sI24
F0.05989005017232722
sI25
F0.05989005017232722
sI26
F0.05989005017232722
sI27
F0.05989005017232722
sI28
F0.05989005017232722
sI29
F0.8775739956763505
sI30
F0.8775739956763505
sI31
F0.05989005017232722
sI32
F0.05989005017232722
sI33
F0.05989005017232722
sI34
F0.05989005017232722
sI35
F0.05989005017232722
sI36
F0.05989005017232722
sI37
F0.05989005017232722
sI38
F0.05989005017232722
sI39
F0.05989005017232722
sI40
F0.05989005017232722
sI41
F0.037787551198431545
sI42
F0.037787551198431545
sI43
F0.037787551198431545
sI44
F0.037787551198431545
sI45
F0.037787551198431545
sI46
F0.037787551198431545
sI47
F0.037787551198431545
sI48
F0.037787551198431545
sI49
F0.6183761138272569
sI50
F0.6183761138272569
sI51
F0.037787551198431545
sI52
F0.037787551198431545
sI53
F0.037787551198431545
sI54
F0.037787551198431545
sI55
F0.037787551198431545
sI56
F0.037787551198431545
sI57
F0.037787551198431545
sI58
F0.037787551198431545
sI59
F0.037787551198431545
sI60
F0.037787551198431545
sI61
F0.030019948245102027
sI62
F0.030019948245102027
sI63
F0.030019948245102027
sI64
F0.030019948245102027
sI65
F0.030019948245102027
sI66
F0.030019948245102027
sI67
F0.030019948245102027
sI68
F0.030019948245102027
sI69
F0.20608975014564745
sI70
F0.20608975014564745
sI71
F0.030019948245102027
sI72
F0.030019948245102027
sI73
F0.030019948245102027
sI74
F0.030019948245102027
sI75
F0.030019948245102027
sI76
F0.030019948245102027
sI77
F0.030019948245102027
sI78
F0.030019948245102027
sI79
F0.030019948245102027
sI80
F0.030019948245102027
sI81
F0.030019948245102027
sI82
F0.030019948245102027
sI83
F0.030019948245102027
sI84
F0.030019948245102027
sI85
F0.030019948245102027
sI86
F0.030019948245102027
sI87
F0.030019948245102027
sI88
F0.030019948245102027
sI89
F0.20608975014564745
sI90
F0.20608975014564745
sI91
F0.030019948245102027
sI92
F0.030019948245102027
sI93
F0.030019948245102027
sI94
F0.030019948245102027
sI95
F0.030019948245102027
sI96
F0.030019948245102027
sI97
F0.030019948245102027
sI98
F0.030019948245102027
sI99
F0.030019948245102027
sI100
F0.030019948245102027
sI101
F0.0380673379124115
sI102
F0.0380673379124115
sI103
F0.0380673379124115
sI104
F0.0380673379124115
sI105
F0.0380673379124115
sI106
F0.0380673379124115
sI107
F0.0380673379124115
sI108
F0.0380673379124115
sI109
F0.0380673379124115
sI110
F0.0380673379124115
sI111
F0.0380673379124115
sI112
F0.0380673379124115
sI113
F0.0380673379124115
sI114
F0.0380673379124115
sI115
F0.0380673379124115
sI116
F0.0380673379124115
sI117
F0.0380673379124115
sI118
F0.0380673379124115
sI119
F0.0380673379124115
sI120
F0.0380673379124115
sI121
F0.0380673379124115
sI122
F0.0380673379124115
sI123
F0.0380673379124115
sI124
F0.0380673379124115
sI125
F0.0380673379124115
sI126
F0.0380673379124115
sI127
F0.0380673379124115
sI128
F0.0380673379124115
sI129
F0.0380673379124115
sI130
F0.0380673379124115
sI131
F0.0380673379124115
sI132
F0.0380673379124115
sI133
F0.0380673379124115
sI134
F0.0380673379124115
sI135
F0.0380673379124115
sI136
F0.0380673379124115
sI137
F0.0380673379124115
sI138
F0.0380673379124115
sI139
F0.0380673379124115
sI140
F0.0380673379124115
sI141
F0.0380673379124115
sI142
F0.0380673379124115
sI143
F0.0380673379124115
sI144
F0.0380673379124115
sI145
F0.0380673379124115
sI146
F0.0380673379124115
sI147
F0.0380673379124115
sI148
F0.0380673379124115
sI149
F0.0380673379124115
sI150
F0.0380673379124115
sI151
F0.0380673379124115
sI152
F0.0380673379124115
sI153
F0.0380673379124115
sI154
F0.0380673379124115
sI155
F0.0380673379124115
sI156
F0.0380673379124115
sI157
F0.0380673379124115
sI158
F0.0380673379124115
sI159
F0.0380673379124115
sI160
F0.0380673379124115
sF43.95187879777239
F1300.0
(F28.056573210680106
I500
tp14
tp15
a(I5
(dp16
I1
F0.022308676988210298
sI2
F0.022308676988210298
sI3
F0.022308676988210298
sI4
F0.022308676988210298
sI5
F0.022308676988210298
sI6
F0.022308676988210298
sI7
F0.022308676988210298
sI8
F0.022308676988210298
sI9
F0.952990333436344
sI10
F0.952990333436344
sI11
F0.022308676988210298
sI12
F0.022308676988210298
sI13
F0.022308676988210298
sI14
F0.022308676988210298
sI15
F0.022308676988210298
sI16
F0.022308676988210298
sI17
F0.022308676988210298
sI18
F0.022308676988210298
sI19
F0.022308676988210298
sI20
F0.022308676988210298
sI21
F0.022308676988210298
sI22
F0.022308676988210298
sI23
F0.022308676988210298
sI24
F0.022308676988210298
sI25
F0.022308676988210298
sI26
F0.022308676988210298
sI27
F0.022308676988210298
sI28
F0.022308676988210298
sI29
F0.952990333436344
sI30
F0.952990333436344
sI31
F0.022308676988210298
sI32
F0.022308676988210298
sI33
F0.022308676988210298
sI34
F0.022308676988210298
sI35
F0.022308676988210298
sI36
F0.022308676988210298
sI37
F0.022308676988210298
sI38
F0.022308676988210298
sI39
F0.022308676988210298
sI40
F0.022308676988210298
sI41
F0.013932196356397326
sI42
F0.013932196356397326
sI43
F0.013932196356397326
sI44
F0.013932196356397326
sI45
F0.013932196356397326
sI46
F0.013932196356397326
sI47
F0.013932196356397326
sI48
F0.013932196356397326
sI49
F0.8291432044790699
sI50
F0.8291432044790699
sI51
F0.013932196356397326
sI52
F0.013932196356397326
sI53
F0.013932196356397326
sI54
F0.013932196356397326
sI55
F0.013932196356397326
sI56
F0.013932196356397326
sI57
F0.013932196356397326
sI58
F0.013932196356397326
sI59
F0.013932196356397326
sI60
F0.013932196356397326
sI61
F0.011029167828987198
sI62
F0.011029167828987198
sI63
F0.011029167828987198
sI64
F0.011029167828987198
sI65
F0.011029167828987198
sI66
F0.011029167828987198
sI67
F0.011029167828987198
sI68
F0.011029167828987198
sI69
F0.4639101040300552
sI70
F0.4639101040300552
sI71
F0.011029167828987198
sI72
F0.011029167828987198
sI73
F0.011029167828987198
sI74
F0.011029167828987198
sI75
F0.011029167828987198
sI76
F0.011029167828987198
sI77
F0.011029167828987198
sI78
F0.011029167828987198
sI79
F0.011029167828987198
sI80
F0.011029167828987198
sI81
F0.011029167828987198
sI82
F0.011029167828987198
sI83
F0.011029167828987198
sI84
F0.011029167828987198
sI85
F0.011029167828987198
sI86
F0.011029167828987198
sI87
F0.011029167828987198
sI88
F0.011029167828987198
sI89
F0.4639101040300552
sI90
F0.4639101040300552
sI91
F0.011029167828987198
sI92
F0.011029167828987198
sI93
F0.011029167828987198
sI94
F0.011029167828987198
sI95
F0.011029167828987198
sI96
F0.011029167828987198
sI97
F0.011029167828987198
sI98
F0.011029167828987198
sI99
F0.011029167828987198
sI100
F0.011029167828987198
sI101
F0.01403715148567845
sI102
F0.01403715148567845
sI103
F0.01403715148567845
sI104
F0.01403715148567845
sI105
F0.01403715148567845
sI106
F0.01403715148567845
sI107
F0.01403715148567845
sI108
F0.01403715148567845
sI109
F0.12187301127797713
sI110
F0.12187301127797713
sI111
F0.01403715148567845
sI112
F0.01403715148567845
sI113
F0.01403715148567845
sI114
F0.01403715148567845
sI115
F0.01403715148567845
sI116
F0.01403715148567845
sI117
F0.01403715148567845
sI118
F0.01403715148567845
sI119
F0.01403715148567845
sI120
F0.01403715148567845
sI121
F0.023931934131980293
sI122
F0.023931934131980293
sI123
F0.023931934131980293
sI124
F0.023931934131980293
sI125
F0.023931934131980293
sI126
F0.023931934131980293
sI127
F0.023931934131980293
sI128
F0.023931934131980293
sI129
F0.023931934131980293
sI130
F0.023931934131980293
sI131
F0.023931934131980293
sI132
F0.023931934131980293
sI133
F0.023931934131980293
sI134
F0.023931934131980293
sI135
F0.023931934131980293
sI136
F0.023931934131980293
sI137
F0.023931934131980293
sI138
F0.023931934131980293
sI139
F0.023931934131980293
sI140
F0.023931934131980293
sI141
F0.023931934131980293
sI142
F0.023931934131980293
sI143
F0.023931934131980293
sI144
F0.023931934131980293
sI145
F0.023931934131980293
sI146
F0.023931934131980293
sI147
F0.023931934131980293
sI148
F0.023931934131980293
sI149
F0.023931934131980293
sI150
F0.023931934131980293
sI151
F0.023931934131980293
sI152
F0.023931934131980293
sI153
F0.023931934131980293
sI154
F0.023931934131980293
sI155
F0.023931934131980293
sI156
F0.023931934131980293
sI157
F0.023931934131980293
sI158
F0.023931934131980293
sI159
F0.023931934131980293
sI160
F0.023931934131980293
sF26.51284706741009
F1600.0
(F17.4390317303623
I300
tp17
tp18
a(I6
(dp19
I1
F0.008167562371004602
sI2
F0.008167562371004602
sI3
F0.008167562371004602
sI4
F0.008167562371004602
sI5
F0.008167562371004602
sI6
F0.008167562371004602
sI7
F0.008999392642604935
sI8
F0.008999392642604935
sI9
F0.8587601089802855
sI10
F0.8587601089802855
sI11
F0.008999392642604935
sI12
F0.008999392642604935
sI13
F0.07137149698414093
sI14
F0.07137149698414093
sI15
F0.05297293948566695
sI16
F0.05297293948566695
sI17
F0.013990374272206946
sI18
F0.013990374272206946
sI19
F0.017317695358608286
sI20
F0.017317695358608286
sI21
F0.008167562371004602
sI22
F0.008167562371004602
sI23
F0.008167562371004602
sI24
F0.008167562371004602
sI25
F0.008167562371004602
sI26
F0.008167562371004602
sI27
F0.008999392642604935
sI28
F0.008999392642604935
sI29
F0.8587601089802855
sI30
F0.8587601089802855
sI31
F0.008999392642604935
sI32
F0.008999392642604935
sI33
F0.07137149698414093
sI34
F0.07137149698414093
sI35
F0.05297293948566695
sI36
F0.05297293948566695
sI37
F0.013990374272206946
sI38
F0.013990374272206946
sI39
F0.017317695358608286
sI40
F0.017317695358608286
sI41
F0.005081683502757406
sI42
F0.005081683502757406
sI43
F0.005081683502757406
sI44
F0.005081683502757406
sI45
F0.005081683502757406
sI46
F0.005081683502757406
sI47
F0.005602301905912694
sI48
F0.005602301905912694
sI49
F0.6043633163568294
sI50
F0.6043633163568294
sI51
F0.005602301905912694
sI52
F0.005602301905912694
sI53
F0.04558080892870444
sI54
F0.04558080892870444
sI55
F0.03371257921408927
sI56
F0.03371257921408927
sI57
F0.008726012324844431
sI58
F0.008726012324844431
sI59
F0.010808485937465587
sI60
F0.010808485937465587
sI61
F0.004017621820922631
sI62
F0.004017621820922631
sI63
F0.004017621820922631
sI64
F0.004017621820922631
sI65
F0.004017621820922631
sI66
F0.004017621820922631
sI67
F0.004430065703749958
sI68
F0.004430065703749958
sI69
F0.2350710198862602
sI70
F0.2350710198862602
sI71
F0.004430065703749958
sI72
F0.004430065703749958
sI73
F0.03636880324032558
sI74
F0.03636880324032558
sI75
F0.02686643996107368
sI76
F0.02686643996107368
sI77
F0.006904729000713923
sI78
F0.006904729000713923
sI79
F0.008554504532023232
sI80
F0.008554504532023232
sI81
F0.004017621820922631
sI82
F0.004017621820922631
sI83
F0.004017621820922631
sI84
F0.004017621820922631
sI85
F0.004017621820922631
sI86
F0.004017621820922631
sI87
F0.004430065703749958
sI88
F0.004430065703749958
sI89
F0.2350710198862602
sI90
F0.2350710198862602
sI91
F0.004430065703749958
sI92
F0.004430065703749958
sI93
F0.004430065703749958
sI94
F0.004430065703749958
sI95
F0.006904729000713923
sI96
F0.006904729000713923
sI97
F0.006904729000713923
sI98
F0.006904729000713923
sI99
F0.008554504532023232
sI100
F0.008554504532023232
sI101
F0.005120205051562238
sI102
F0.005120205051562238
sI103
F0.005120205051562238
sI104
F0.005120205051562238
sI105
F0.005120205051562238
sI106
F0.005120205051562238
sI107
F0.005644731312392602
sI108
F0.005644731312392602
sI109
F0.05120129156803517
sI110
F0.05120129156803517
sI111
F0.005644731312392602
sI112
F0.005644731312392602
sI113
F0.005644731312392602
sI114
F0.005644731312392602
sI115
F0.008791888877374796
sI116
F0.008791888877374796
sI117
F0.008791888877374796
sI118
F0.008791888877374796
sI119
F0.010889993920696256
sI120
F0.010889993920696256
sI121
F0.008768274482852965
sI122
F0.008768274482852965
sI123
F0.008768274482852965
sI124
F0.008768274482852965
sI125
F0.008768274482852965
sI126
F0.008768274482852965
sI127
F0.009660254462213394
sI128
F0.009660254462213394
sI129
F0.009660254462213394
sI130
F0.009660254462213394
sI131
F0.009660254462213394
sI132
F0.009660254462213394
sI133
F0.009660254462213394
sI134
F0.009660254462213394
sI135
F0.015012134338375982
sI136
F0.015012134338375982
sI137
F0.015012134338375982
sI138
F0.015012134338375982
sI139
F0.018580054255817706
sI140
F0.018580054255817706
sI141
F0.008768274482852965
sI142
F0.008768274482852965
sI143
F0.008768274482852965
sI144
F0.008768274482852965
sI145
F0.008768274482852965
sI146
F0.008768274482852965
sI147
F0.009660254462213394
sI148
F0.009660254462213394
sI149
F0.009660254462213394
sI150
F0.009660254462213394
sI151
F0.009660254462213394
sI152
F0.009660254462213394
sI153
F0.009660254462213394
sI154
F0.009660254462213394
sI155
F0.015012134338375982
sI156
F0.015012134338375982
sI157
F0.015012134338375982
sI158
F0.015012134338375982
sI159
F0.018580054255817706
sI160
F0.018580054255817706
sF21.70688334570954
F2500.0
(F4.80596372170055
I900
tp20
tp21
a(I7
(dp22
I1
F0.0032770929831407404
sI2
F0.0032770929831407404
sI3
F0.0032770929831407404
sI4
F0.0032770929831407404
sI5
F0.0032770929831407404
sI6
F0.0032770929831407404
sI7
F0.0039487007623430605
sI8
F0.0039487007623430605
sI9
F0.667075489020213
sI10
F0.667075489020213
sI11
F0.0039487007623430605
sI12
F0.028538286161864945
sI13
F0.19419732232156953
sI14
F0.034607846019952024
sI15
F0.025545689169051436
sI16
F0.025545689169051436
sI17
F0.0066713898310249795
sI18
F0.0066713898310249795
sI19
F0.008912350473822795
sI20
F0.008912350473822795
sI21
F0.0032770929831407404
sI22
F0.0032770929831407404
sI23
F0.0032770929831407404
sI24
F0.0032770929831407404
sI25
F0.0032770929831407404
sI26
F0.0032770929831407404
sI27
F0.0039487007623430605
sI28
F0.0039487007623430605
sI29
F0.667075489020213
sI30
F0.667075489020213
sI31
F0.0039487007623430605
sI32
F0.028538286161864945
sI33
F0.19419732232156953
sI34
F0.034607846019952024
sI35
F0.025545689169051436
sI36
F0.025545689169051436
sI37
F0.0066713898310249795
sI38
F0.0066713898310249795
sI39
F0.008912350473822795
sI40
F0.008912350473822795
sI41
F0.0020365617466925187
sI42
F0.0020365617466925187
sI43
F0.0020365617466925187
sI44
F0.0020365617466925187
sI45
F0.0020365617466925187
sI46
F0.0020365617466925187
sI47
F0.0024554393331829754
sI48
F0.0024554393331829754
sI49
F0.35835700680646904
sI50
F0.35835700680646904
sI51
F0.0024554393331829754
sI52
F0.017929678124413595
sI53
F0.13168843978883368
sI54
F0.021933222476209886
sI55
F0.01616651527235889
sI56
F0.01616651527235889
sI57
F0.00415491549667964
sI58
F0.00415491549667964
sI59
F0.005553703251402996
sI60
F0.005553703251402996
sI61
F0.0016094772387607015
sI62
F0.0016094772387607015
sI63
F0.0016094772387607015
sI64
F0.0016094772387607015
sI65
F0.0016094772387607015
sI66
F0.0016094772387607015
sI67
F0.0019409227790673225
sI68
F0.0019409227790673225
sI69
F0.11227751694009966
sI70
F0.11227751694009966
sI71
F0.0019409227790673225
sI72
F0.014223400847930705
sI73
F0.10746545766324951
sI74
F0.017453652667876858
sI75
F0.012858244155832175
sI76
F0.012858244155832175
sI77
F0.00328603622899593
sI78
F0.00328603622899593
sI79
F0.004393159921209366
sI80
F0.004393159921209366
sI81
F0.0016094772387607015
sI82
F0.0016094772387607015
sI83
F0.0016094772387607015
sI84
F0.0016094772387607015
sI85
F0.0016094772387607015
sI86
F0.0016094772387607015
sI87
F0.0019409227790673225
sI88
F0.0019409227790673225
sI89
F0.11227751694009966
sI90
F0.11227751694009966
sI91
F0.0019409227790673225
sI92
F0.0019409227790673225
sI93
F0.0019409227790673225
sI94
F0.0021068656407128316
sI95
F0.00328603622899593
sI96
F0.00328603622899593
sI97
F0.00328603622899593
sI98
F0.00328603622899593
sI99
F0.004393159921209366
sI100
F0.004393159921209366
sI101
F0.002052029655113941
sI102
F0.002052029655113941
sI103
F0.002052029655113941
sI104
F0.002052029655113941
sI105
F0.002052029655113941
sI106
F0.002052029655113941
sI107
F0.0024740697324145086
sI108
F0.0024740697324145086
sI109
F0.022783945853638174
sI110
F0.022783945853638174
sI111
F0.0024740697324145086
sI112
F0.0024740697324145086
sI113
F0.0024740697324145086
sI114
F0.002685447171079715
sI115
F0.004186359829814128
sI116
F0.004186359829814128
sI117
F0.004186359829814128
sI118
F0.004186359829814128
sI119
F0.005595694300550019
sI120
F0.005595694300550019
sI121
F0.0035189185301968606
sI122
F0.0035189185301968606
sI123
F0.0035189185301968606
sI124
F0.0035189185301968606
sI125
F0.0035189185301968606
sI126
F0.0035189185301968606
sI127
F0.004239580298791335
sI128
F0.004239580298791335
sI129
F0.004239580298791335
sI130
F0.004239580298791335
sI131
F0.004239580298791335
sI132
F0.004239580298791335
sI133
F0.004239580298791335
sI134
F0.004600958576352805
sI135
F0.007160679684852379
sI136
F0.007160679684852379
sI137
F0.007160679684852379
sI138
F0.007160679684852379
sI139
F0.00956494588194784
sI140
F0.00956494588194784
sI141
F0.0035189185301968606
sI142
F0.0035189185301968606
sI143
F0.0035189185301968606
sI144
F0.0035189185301968606
sI145
F0.0035189185301968606
sI146
F0.0035189185301968606
sI147
F0.004239580298791335
sI148
F0.004239580298791335
sI149
F0.004239580298791335
sI150
F0.004239580298791335
sI151
F0.004239580298791335
sI152
F0.004239580298791335
sI153
F0.004239580298791335
sI154
F0.004600958576352805
sI155
F0.007160679684852379
sI156
F0.007160679684852379
sI157
F0.007160679684852379
sI158
F0.007160679684852379
sI159
F0.00956494588194784
sI160
F0.00956494588194784
sF17.450638351056494
F2800.0
(F4.256244994653045
I300
tp23
tp24
a(I8
(dp25
I1
F0.0016808222355899592
sI2
F0.0016808222355899592
sI3
F0.0015580321780860528
sI4
F0.0015580321780860528
sI5
F0.0015580321780860528
sI6
F0.010069656054715784
sI7
F0.012111530942802014
sI8
F0.001729755754855263
sI9
F0.41707567716327
sI10
F0.41707567716327
sI11
F0.001729755754855263
sI12
F0.012602534923629395
sI13
F0.09116876330052173
sI14
F0.015313847784655893
sI15
F0.010318075086591046
sI16
F0.010318075086591046
sI17
F0.0026752656209626012
sI18
F0.0026752656209626012
sI19
F0.003576934863729575
sI20
F0.003576934863729575
sI21
F0.0016808222355899592
sI22
F0.0016808222355899592
sI23
F0.0015580321780860528
sI24
F0.0015580321780860528
sI25
F0.0015580321780860528
sI26
F0.010069656054715784
sI27
F0.012111530942802014
sI28
F0.001729755754855263
sI29
F0.41707567716327
sI30
F0.41707567716327
sI31
F0.001729755754855263
sI32
F0.012602534923629395
sI33
F0.09116876330052173
sI34
F0.015313847784655893
sI35
F0.010318075086591046
sI36
F0.010318075086591046
sI37
F0.0026752656209626012
sI38
F0.0026752656209626012
sI39
F0.003576934863729575
sI40
F0.003576934863729575
sI41
F0.0010442441552215905
sI42
F0.0010442441552215905
sI43
F0.00096791203280075
sI44
F0.00096791203280075
sI45
F0.00096791203280075
sI46
F0.006278713278277122
sI47
F0.007561587141488767
sI48
F0.0010751041263019922
sI49
F0.18147789480412108
sI50
F0.18147789480412108
sI51
F0.0010751041263019922
sI52
F0.00789005756932329
sI53
F0.06031964654397942
sI54
F0.009664566222628762
sI55
F0.006506290712665376
sI56
F0.006506290712665376
sI57
F0.0016645637916741023
sI58
F0.0016645637916741023
sI59
F0.002226127194971062
sI60
F0.002226127194971062
sI61
F0.0008251731734876344
sI62
F0.0008251731734876344
sI63
F0.0007648420915435524
sI64
F0.0007648420915435524
sI65
F0.0007648420915435524
sI66
F0.004967724496923359
sI67
F0.00598539948362084
sI68
F0.0008496842479944822
sI69
F0.051057172960897755
sI70
F0.051057172960897755
sI71
F0.0008496842479944822
sI72
F0.0062514937852843466
sI73
F0.04878256350140037
sI74
F0.00767937984012476
sI75
F0.005168339322584707
sI76
F0.005168339322584707
sI77
F0.0013160381983826016
sI78
F0.0013160381983826016
sI79
F0.001760168516706375
sI80
F0.001760168516706375
sI81
F0.0008251731734876344
sI82
F0.0008251731734876344
sI83
F0.0007648420915435524
sI84
F0.0007648420915435524
sI85
F0.0007648420915435524
sI86
F0.0007648420915435524
sI87
F0.0009224334833993382
sI88
F0.0008496842479944822
sI89
F0.051057172960897755
sI90
F0.051057172960897755
sI91
F0.0008496842479944822
sI92
F0.0008496842479944822
sI93
F0.0008496842479944822
sI94
F0.0009223789236280429
sI95
F0.0013160381983826016
sI96
F0.0013160381983826016
sI97
F0.0013160381983826016
sI98
F0.0013160381983826016
sI99
F0.001760168516706375
sI100
F0.001760168516706375
sI101
F0.0010521791836637382
sI102
F0.0010521791836637382
sI103
F0.0009752676089367996
sI104
F0.0009752676089367996
sI105
F0.0009752676089367996
sI106
F0.0009752676089367996
sI107
F0.0011759880004008061
sI108
F0.0010832678766855416
sI109
F0.010042245000345293
sI110
F0.010042245000345293
sI111
F0.0010832678766855416
sI112
F0.0010832678766855416
sI113
F0.0010832678766855416
sI114
F0.0011758993190017675
sI115
F0.001677181053173196
sI116
F0.001677181053173196
sI117
F0.001677181053173196
sI118
F0.001677181053173196
sI119
F0.0022429942837615844
sI120
F0.0022429942837615844
sI121
F0.0018049588924447238
sI122
F0.0018049588924447238
sI123
F0.0016731158433868673
sI124
F0.0016731158433868673
sI125
F0.0016731158433868673
sI126
F0.0016731158433868673
sI127
F0.002016167259921831
sI128
F0.0018573520428597238
sI129
F0.0018573520428597238
sI130
F0.0018573520428597238
sI131
F0.0018573520428597238
sI132
F0.0018573520428597238
sI133
F0.0018573520428597238
sI134
F0.0020159065503367792
sI135
F0.0028720047032083917
sI136
F0.0028720047032083917
sI137
F0.0028720047032083917
sI138
F0.0028720047032083917
sI139
F0.003839800739020089
sI140
F0.003839800739020089
sI141
F0.0018049588924447238
sI142
F0.0018049588924447238
sI143
F0.0016731158433868673
sI144
F0.0016731158433868673
sI145
F0.0016731158433868673
sI146
F0.0016731158433868673
sI147
F0.002016167259921831
sI148
F0.0018573520428597238
sI149
F0.0018573520428597238
sI150
F0.0018573520428597238
sI151
F0.0018573520428597238
sI152
F0.0018573520428597238
sI153
F0.0018573520428597238
sI154
F0.0020159065503367792
sI155
F0.0028720047032083917
sI156
F0.0028720047032083917
sI157
F0.0028720047032083917
sI158
F0.0028720047032083917
sI159
F0.003839800739020089
sI160
F0.003839800739020089
sF12.064930424205405
F3300.0
(F5.385707926851088
I500
tp26
tp27
a(I9
(dp28
I1
F0.0013027963486070885
sI2
F0.0013027963486070885
sI3
F0.0009739979523166256
sI4
F0.0009739979523166256
sI5
F0.0009739979523166256
sI6
F0.006303113432554524
sI7
F0.004866817457526387
sI8
F0.0006923516931906473
sI9
F0.20480040280577466
sI10
F0.20480040280577466
sI11
F0.0006923516931906473
sI12
F0.00506506487924996
sI13
F0.03780577298654972
sI14
F0.006161124920679771
sI15
F0.0037574020353699374
sI16
F0.0037574020353699374
sI17
F0.0009709267350940416
sI18
F0.0009709267350940416
sI19
F0.001298683490703428
sI20
F0.001298683490703428
sI21
F0.0013027963486070885
sI22
F0.0013027963486070885
sI23
F0.0009739979523166256
sI24
F0.0009739979523166256
sI25
F0.0009739979523166256
sI26
F0.006303113432554524
sI27
F0.004866817457526387
sI28
F0.0006923516931906473
sI29
F0.20480040280577466
sI30
F0.20480040280577466
sI31
F0.0006923516931906473
sI32
F0.00506506487924996
sI33
F0.03780577298654972
sI34
F0.006161124920679771
sI35
F0.0037574020353699374
sI36
F0.0037574020353699374
sI37
F0.0009709267350940416
sI38
F0.0009709267350940416
sI39
F0.001298683490703428
sI40
F0.001298683490703428
sI41
F0.0008093506059523256
sI42
F0.0008093506059523256
sI43
F0.0006050329143402764
sI44
F0.0006050329143402764
sI45
F0.0006050329143402764
sI46
F0.003927909120122933
sI47
F0.0030332604137870162
sI48
F0.0004302151677649845
sI49
F0.07830962313887896
sI50
F0.07830962313887896
sI51
F0.0004302151677649845
sI52
F0.003165416565662707
sI53
F0.02469948794050457
sI54
F0.003879939361182719
sI55
F0.002365310100074472
sI56
F0.002365310100074472
sI57
F0.0006038465183501306
sI58
F0.0006038465183501306
sI59
F0.0008077622345276031
sI60
F0.0008077622345276031
sI61
F0.0006395475344020577
sI62
F0.0006395475344020577
sI63
F0.00047808118088808505
sI64
F0.00047808118088808505
sI65
F0.00047808118088808505
sI66
F0.003107150052145344
sI67
F0.002399557776307981
sI68
F0.0003399820627520902
sI69
F0.0208294641116175
sI70
F0.0208294641116175
sI71
F0.0003399820627520902
sI72
F0.0025064873052905597
sI73
F0.019883542247018382
sI74
F0.0030806491108478235
sI75
F0.0018777967527575257
sI76
F0.0018777967527575257
sI77
F0.000477340150206458
sI78
F0.000477340150206458
sI79
F0.0006385555145549172
sI80
F0.0006385555145549172
sI81
F0.0006395475344020577
sI82
F0.0006395475344020577
sI83
F0.00047808118088808505
sI84
F0.00047808118088808505
sI85
F0.00047808118088808505
sI86
F0.00047808118088808505
sI87
F0.0003691011142499489
sI88
F0.0003399820627520902
sI89
F0.0208294641116175
sI90
F0.0208294641116175
sI91
F0.0003399820627520902
sI92
F0.0003399820627520902
sI93
F0.0003399820627520902
sI94
F0.00036907927522786775
sI95
F0.000477340150206458
sI96
F0.000477340150206458
sI97
F0.000477340150206458
sI98
F0.000477340150206458
sI99
F0.0006385555145549172
sI100
F0.0006385555145549172
sI101
F0.0008155011898284088
sI102
F0.0008155011898284088
sI103
F0.0006096314908794412
sI104
F0.0006096314908794412
sI105
F0.0006096314908794412
sI106
F0.0006096314908794412
sI107
F0.0004706028254505228
sI108
F0.0004334833141923256
sI109
F0.0040321397992458255
sI110
F0.0040321397992458255
sI111
F0.0004334833141923256
sI112
F0.0004334833141923256
sI113
F0.0004334833141923256
sI114
F0.0004705673215641714
sI115
F0.0006084270081309143
sI116
F0.0006084270081309143
sI117
F0.0006084270081309143
sI118
F0.0006084270081309143
sI119
F0.0008138885983411868
sI120
F0.0008138885983411868
sI121
F0.0013990266456164473
sI122
F0.0013990266456164473
sI123
F0.0010459601677784663
sI124
F0.0010459601677784663
sI125
F0.0010459601677784663
sI126
F0.0010459601677784663
sI127
F0.0008070775669307326
sI128
F0.0007434590024749942
sI129
F0.0007434590024749942
sI130
F0.0007434590024749942
sI131
F0.0007434590024749942
sI132
F0.0007434590024749942
sI133
F0.0007434590024749942
sI134
F0.0008069731250583212
sI135
F0.0010424191331636966
sI136
F0.0010424191331636966
sI137
F0.0010424191331636966
sI138
F0.0010424191331636966
sI139
F0.0013942843907272413
sI140
F0.0013942843907272413
sI141
F0.0013990266456164473
sI142
F0.0013990266456164473
sI143
F0.0010459601677784663
sI144
F0.0010459601677784663
sI145
F0.0010459601677784663
sI146
F0.0010459601677784663
sI147
F0.0008070775669307326
sI148
F0.0007434590024749942
sI149
F0.0007434590024749942
sI150
F0.0007434590024749942
sI151
F0.0007434590024749942
sI152
F0.0007434590024749942
sI153
F0.0007434590024749942
sI154
F0.0008069731250583212
sI155
F0.0010424191331636966
sI156
F0.0010424191331636966
sI157
F0.0010424191331636966
sI158
F0.0010424191331636966
sI159
F0.0013942843907272413
sI160
F0.0013942843907272413
sF7.1295101421646825
F3600.0
(F4.935420282040723
I300
tp29
tp30
a.