(lp0
(I3
(dp1
I1
F0.5
sI2
F0.5
sI3
F0.5
sI4
F0.5
sI5
F0.5
sI6
F0.5
sI7
F0.5
sI8
F0.5
sI9
F0.5
sI10
F0.5
sI11
F0.5
sI12
F0.5
sI13
F0.5
sI14
F0.5
sI15
F0.5
sI16
F0.5
sI17
F0.5
sI18
F0.5
sI19
F0.5
sI20
F0.5
sI21
F0.5
sI22
F0.5
sI23
F0.5
sI24
F0.5
sI25
F0.5
sI26
F0.5
sI27
F0.5
sI28
F0.5
sI29
F0.5
sI30
F0.5
sI31
F0.5
sI32
F0.5
sI33
F0.5
sI34
F0.5
sI35
F0.5
sI36
F0.5
sI37
F0.5
sI38
F0.5
sI39
F0.5
sI40
F0.5
sI41
F0.5
sI42
F0.5
sI43
F0.5
sI44
F0.5
sI45
F0.5
sI46
F0.5
sI47
F0.5
sI48
F0.5
sI49
F0.5
sI50
F0.5
sI51
F0.5
sI52
F0.5
sI53
F0.5
sI54
F0.5
sI55
F0.5
sI56
F0.5
sI57
F0.5
sI58
F0.5
sI59
F0.5
sI60
F0.5
sI61
F0.5
sI62
F0.5
sI63
F0.5
sI64
F0.5
sI65
F0.5
sI66
F0.5
sI67
F0.5
sI68
F0.5
sI69
F0.5
sI70
F0.5
sI71
F0.5
sI72
F0.5
sI73
F0.5
sI74
F0.5
sI75
F0.5
sI76
F0.5
sI77
F0.5
sI78
F0.5
sI79
F0.5
sI80
F0.5
sI81
F0.5
sI82
F0.5
sI83
F0.5
sI84
F0.5
sI85
F0.5
sI86
F0.5
sI87
F0.5
sI88
F0.5
sI89
F0.5
sI90
F0.5
sI91
F0.5
sI92
F0.5
sI93
F0.5
sI94
F0.5
sI95
F0.5
sI96
F0.5
sI97
F0.5
sI98
F0.5
sI99
F0.5
sI100
F0.5
sI101
F0.5
sI102
F0.5
sI103
F0.5
sI104
F0.5
sI105
F0.5
sI106
F0.5
sI107
F0.5
sI108
F0.5
sI109
F0.5
sI110
F0.5
sI111
F0.5
sI112
F0.5
sI113
F0.5
sI114
F0.5
sI115
F0.5
sI116
F0.5
sI117
F0.5
sI118
F0.5
sI119
F0.5
sI120
F0.5
sI121
F0.5
sI122
F0.5
sI123
F0.5
sI124
F0.5
sI125
F0.5
sI126
F0.5
sI127
F0.5
sI128
F0.5
sI129
F0.5
sI130
F0.5
sI131
F0.5
sI132
F0.5
sI133
F0.5
sI134
F0.5
sI135
F0.5
sI136
F0.5
sI137
F0.5
sI138
F0.5
sI139
F0.5
sI140
F0.5
sI141
F0.5
sI142
F0.5
sI143
F0.5
sI144
F0.5
sI145
F0.5
sI146
F0.5
sI147
F0.5
sI148
F0.5
sI149
F0.5
sI150
F0.5
sI151
F0.5
sI152
F0.5
sI153
F0.5
sI154
F0.5
sI155
F0.5
sI156
F0.5
sI157
F0.5
sI158
F0.5
sI159
F0.5
sI160
F0.5
sF160.0
F0.0
tp2
a(I4
(dp3
I1
F0.26
sI2
F0.26
sI3
F0.26
sI4
F0.26
sI5
F0.26
sI6
F0.26
sI7
F0.26
sI8
F0.26
sI9
F0.7400000000000001
sI10
F0.7400000000000001
sI11
F0.26
sI12
F0.26
sI13
F0.26
sI14
F0.26
sI15
F0.26
sI16
F0.26
sI17
F0.26
sI18
F0.26
sI19
F0.26
sI20
F0.26
sI21
F0.26
sI22
F0.26
sI23
F0.26
sI24
F0.26
sI25
F0.26
sI26
F0.26
sI27
F0.26
sI28
F0.26
sI29
F0.7400000000000001
sI30
F0.7400000000000001
sI31
F0.26
sI32
F0.26
sI33
F0.26
sI34
F0.26
sI35
F0.26
sI36
F0.26
sI37
F0.26
sI38
F0.26
sI39
F0.26
sI40
F0.26
sI41
F0.26
sI42
F0.26
sI43
F0.26
sI44
F0.26
sI45
F0.26
sI46
F0.26
sI47
F0.26
sI48
F0.26
sI49
F0.7400000000000001
sI50
F0.7400000000000001
sI51
F0.26
sI52
F0.26
sI53
F0.26
sI54
F0.26
sI55
F0.26
sI56
F0.26
sI57
F0.26
sI58
F0.26
sI59
F0.26
sI60
F0.26
sI61
F0.26
sI62
F0.26
sI63
F0.26
sI64
F0.26
sI65
F0.26
sI66
F0.26
sI67
F0.26
sI68
F0.26
sI69
F0.7400000000000001
sI70
F0.7400000000000001
sI71
F0.26
sI72
F0.26
sI73
F0.26
sI74
F0.26
sI75
F0.26
sI76
F0.26
sI77
F0.26
sI78
F0.26
sI79
F0.26
sI80
F0.26
sI81
F0.26
sI82
F0.26
sI83
F0.26
sI84
F0.26
sI85
F0.26
sI86
F0.26
sI87
F0.26
sI88
F0.26
sI89
F0.7400000000000001
sI90
F0.7400000000000001
sI91
F0.26
sI92
F0.26
sI93
F0.26
sI94
F0.26
sI95
F0.26
sI96
F0.26
sI97
F0.26
sI98
F0.26
sI99
F0.26
sI100
F0.26
sI101
F0.305
sI102
F0.305
sI103
F0.305
sI104
F0.305
sI105
F0.305
sI106
F0.305
sI107
F0.305
sI108
F0.305
sI109
F0.305
sI110
F0.305
sI111
F0.305
sI112
F0.305
sI113
F0.305
sI114
F0.305
sI115
F0.305
sI116
F0.305
sI117
F0.305
sI118
F0.305
sI119
F0.305
sI120
F0.305
sI121
F0.305
sI122
F0.305
sI123
F0.305
sI124
F0.305
sI125
F0.305
sI126
F0.305
sI127
F0.305
sI128
F0.305
sI129
F0.305
sI130
F0.305
sI131
F0.305
sI132
F0.305
sI133
F0.305
sI134
F0.305
sI135
F0.305
sI136
F0.305
sI137
F0.305
sI138
F0.305
sI139
F0.305
sI140
F0.305
sI141
F0.305
sI142
F0.305
sI143
F0.305
sI144
F0.305
sI145
F0.305
sI146
F0.305
sI147
F0.305
sI148
F0.305
sI149
F0.305
sI150
F0.305
sI151
F0.305
sI152
F0.305
sI153
F0.305
sI154
F0.305
sI155
F0.305
sI156
F0.305
sI157
F0.305
sI158
F0.305
sI159
F0.305
sI160
F0.305
sF135.91367262577452
F300.0
tp4
a(I9
(dp5
I1
F0.20622360248447205
sI2
F0.20622360248447205
sI3
F0.1703726708074534
sI4
F0.1703726708074534
sI5
F0.1703726708074534
sI6
F0.1703726708074534
sI7
F0.11659627329192546
sI8
F0.11659627329192546
sI9
F0.48058426966292145
sI10
F0.48058426966292145
sI11
F0.11659627329192546
sI12
F0.11659627329192546
sI13
F0.11659627329192546
sI14
F0.11659627329192546
sI15
F0.10763354037267081
sI16
F0.10763354037267081
sI17
F0.10763354037267081
sI18
F0.10763354037267081
sI19
F0.10763354037267081
sI20
F0.10763354037267081
sI21
F0.20622360248447205
sI22
F0.20622360248447205
sI23
F0.1703726708074534
sI24
F0.1703726708074534
sI25
F0.1703726708074534
sI26
F0.1703726708074534
sI27
F0.11659627329192546
sI28
F0.11659627329192546
sI29
F0.48058426966292145
sI30
F0.48058426966292145
sI31
F0.11659627329192546
sI32
F0.11659627329192546
sI33
F0.11659627329192546
sI34
F0.11659627329192546
sI35
F0.10763354037267081
sI36
F0.10763354037267081
sI37
F0.10763354037267081
sI38
F0.10763354037267081
sI39
F0.10763354037267081
sI40
F0.10763354037267081
sI41
F0.20622360248447205
sI42
F0.20622360248447205
sI43
F0.1703726708074534
sI44
F0.1703726708074534
sI45
F0.1703726708074534
sI46
F0.1703726708074534
sI47
F0.11659627329192546
sI48
F0.11659627329192546
sI49
F0.48058426966292145
sI50
F0.48058426966292145
sI51
F0.11659627329192546
sI52
F0.11659627329192546
sI53
F0.11659627329192546
sI54
F0.11659627329192546
sI55
F0.10763354037267081
sI56
F0.10763354037267081
sI57
F0.10763354037267081
sI58
F0.10763354037267081
sI59
F0.10763354037267081
sI60
F0.10763354037267081
sI61
F0.20622360248447205
sI62
F0.20622360248447205
sI63
F0.1703726708074534
sI64
F0.1703726708074534
sI65
F0.1703726708074534
sI66
F0.1703726708074534
sI67
F0.11659627329192546
sI68
F0.11659627329192546
sI69
F0.48058426966292145
sI70
F0.48058426966292145
sI71
F0.11659627329192546
sI72
F0.11659627329192546
sI73
F0.11659627329192546
sI74
F0.11659627329192546
sI75
F0.10763354037267081
sI76
F0.10763354037267081
sI77
F0.10763354037267081
sI78
F0.10763354037267081
sI79
F0.10763354037267081
sI80
F0.10763354037267081
sI81
F0.20622360248447205
sI82
F0.20622360248447205
sI83
F0.1703726708074534
sI84
F0.1703726708074534
sI85
F0.1703726708074534
sI86
F0.1703726708074534
sI87
F0.11659627329192546
sI88
F0.11659627329192546
sI89
F0.48058426966292145
sI90
F0.48058426966292145
sI91
F0.11659627329192546
sI92
F0.11659627329192546
sI93
F0.11659627329192546
sI94
F0.11659627329192546
sI95
F0.10763354037267081
sI96
F0.10763354037267081
sI97
F0.10763354037267081
sI98
F0.10763354037267081
sI99
F0.10763354037267081
sI100
F0.10763354037267081
sI101
F0.24315964343598054
sI102
F0.24315964343598054
sI103
F0.2019327390599676
sI104
F0.2019327390599676
sI105
F0.2019327390599676
sI106
F0.2019327390599676
sI107
F0.14009238249594813
sI108
F0.14009238249594813
sI109
F0.14009238249594813
sI110
F0.14009238249594813
sI111
F0.14009238249594813
sI112
F0.14009238249594813
sI113
F0.14009238249594813
sI114
F0.14009238249594813
sI115
F0.1297856564019449
sI116
F0.1297856564019449
sI117
F0.1297856564019449
sI118
F0.1297856564019449
sI119
F0.1297856564019449
sI120
F0.1297856564019449
sI121
F0.24315964343598054
sI122
F0.24315964343598054
sI123
F0.2019327390599676
sI124
F0.2019327390599676
sI125
F0.2019327390599676
sI126
F0.2019327390599676
sI127
F0.14009238249594813
sI128
F0.14009238249594813
sI129
F0.14009238249594813
sI130
F0.14009238249594813
sI131
F0.14009238249594813
sI132
F0.14009238249594813
sI133
F0.14009238249594813
sI134
F0.14009238249594813
sI135
F0.1297856564019449
sI136
F0.1297856564019449
sI137
F0.1297856564019449
sI138
F0.1297856564019449
sI139
F0.1297856564019449
sI140
F0.1297856564019449
sI141
F0.24315964343598054
sI142
F0.24315964343598054
sI143
F0.2019327390599676
sI144
F0.2019327390599676
sI145
F0.2019327390599676
sI146
F0.2019327390599676
sI147
F0.14009238249594813
sI148
F0.14009238249594813
sI149
F0.14009238249594813
sI150
F0.14009238249594813
sI151
F0.14009238249594813
sI152
F0.14009238249594813
sI153
F0.14009238249594813
sI154
F0.14009238249594813
sI155
F0.1297856564019449
sI156
F0.1297856564019449
sI157
F0.1297856564019449
sI158
F0.1297856564019449
sI159
F0.1297856564019449
sI160
F0.1297856564019449
sF98.43097196828893
F1000.0
tp6
a(I2
(dp7
I1
F0.1118210563449011
sI2
F0.1118210563449011
sI3
F0.091371902799913
sI4
F0.091371902799913
sI5
F0.091371902799913
sI6
F0.091371902799913
sI7
F0.061571214284636244
sI8
F0.061571214284636244
sI9
F0.6799348777868339
sI10
F0.6799348777868339
sI11
F0.061571214284636244
sI12
F0.061571214284636244
sI13
F0.061571214284636244
sI14
F0.061571214284636244
sI15
F0.0566980949705937
sI16
F0.0566980949705937
sI17
F0.0566980949705937
sI18
F0.0566980949705937
sI19
F0.0566980949705937
sI20
F0.0566980949705937
sI21
F0.1118210563449011
sI22
F0.1118210563449011
sI23
F0.091371902799913
sI24
F0.091371902799913
sI25
F0.091371902799913
sI26
F0.091371902799913
sI27
F0.061571214284636244
sI28
F0.061571214284636244
sI29
F0.6799348777868339
sI30
F0.6799348777868339
sI31
F0.061571214284636244
sI32
F0.061571214284636244
sI33
F0.061571214284636244
sI34
F0.061571214284636244
sI35
F0.0566980949705937
sI36
F0.0566980949705937
sI37
F0.0566980949705937
sI38
F0.0566980949705937
sI39
F0.0566980949705937
sI40
F0.0566980949705937
sI41
F0.1118210563449011
sI42
F0.1118210563449011
sI43
F0.091371902799913
sI44
F0.091371902799913
sI45
F0.091371902799913
sI46
F0.091371902799913
sI47
F0.061571214284636244
sI48
F0.061571214284636244
sI49
F0.6799348777868339
sI50
F0.6799348777868339
sI51
F0.061571214284636244
sI52
F0.061571214284636244
sI53
F0.061571214284636244
sI54
F0.061571214284636244
sI55
F0.0566980949705937
sI56
F0.0566980949705937
sI57
F0.0566980949705937
sI58
F0.0566980949705937
sI59
F0.0566980949705937
sI60
F0.0566980949705937
sI61
F0.09003585338961548
sI62
F0.09003585338961548
sI63
F0.07314095633663445
sI64
F0.07314095633663445
sI65
F0.07314095633663445
sI66
F0.07314095633663445
sI67
F0.04887312374449258
sI68
F0.04887312374449258
sI69
F0.2464023373218431
sI70
F0.2464023373218431
sI71
F0.04887312374449258
sI72
F0.04887312374449258
sI73
F0.04887312374449258
sI74
F0.04887312374449258
sI75
F0.04494376141626821
sI76
F0.04494376141626821
sI77
F0.04494376141626821
sI78
F0.04494376141626821
sI79
F0.04494376141626821
sI80
F0.04494376141626821
sI81
F0.09003585338961548
sI82
F0.09003585338961548
sI83
F0.07314095633663445
sI84
F0.07314095633663445
sI85
F0.07314095633663445
sI86
F0.07314095633663445
sI87
F0.04887312374449258
sI88
F0.04887312374449258
sI89
F0.2464023373218431
sI90
F0.2464023373218431
sI91
F0.04887312374449258
sI92
F0.04887312374449258
sI93
F0.04887312374449258
sI94
F0.04887312374449258
sI95
F0.04494376141626821
sI96
F0.04494376141626821
sI97
F0.04494376141626821
sI98
F0.04494376141626821
sI99
F0.04494376141626821
sI100
F0.04494376141626821
sI101
F0.1081110485594006
sI102
F0.1081110485594006
sI103
F0.08798129956353853
sI104
F0.08798129956353853
sI105
F0.08798129956353853
sI106
F0.08798129956353853
sI107
F0.059326460556700655
sI108
F0.059326460556700655
sI109
F0.059326460556700655
sI110
F0.059326460556700655
sI111
F0.059326460556700655
sI112
F0.059326460556700655
sI113
F0.059326460556700655
sI114
F0.059326460556700655
sI115
F0.054713373377996366
sI116
F0.054713373377996366
sI117
F0.054713373377996366
sI118
F0.054713373377996366
sI119
F0.054713373377996366
sI120
F0.054713373377996366
sI121
F0.1081110485594006
sI122
F0.1081110485594006
sI123
F0.08798129956353853
sI124
F0.08798129956353853
sI125
F0.08798129956353853
sI126
F0.08798129956353853
sI127
F0.059326460556700655
sI128
F0.059326460556700655
sI129
F0.059326460556700655
sI130
F0.059326460556700655
sI131
F0.059326460556700655
sI132
F0.059326460556700655
sI133
F0.059326460556700655
sI134
F0.059326460556700655
sI135
F0.054713373377996366
sI136
F0.054713373377996366
sI137
F0.054713373377996366
sI138
F0.054713373377996366
sI139
F0.054713373377996366
sI140
F0.054713373377996366
sI141
F0.1081110485594006
sI142
F0.1081110485594006
sI143
F0.08798129956353853
sI144
F0.08798129956353853
sI145
F0.08798129956353853
sI146
F0.08798129956353853
sI147
F0.059326460556700655
sI148
F0.059326460556700655
sI149
F0.059326460556700655
sI150
F0.059326460556700655
sI151
F0.059326460556700655
sI152
F0.059326460556700655
sI153
F0.059326460556700655
sI154
F0.059326460556700655
sI155
F0.054713373377996366
sI156
F0.054713373377996366
sI157
F0.054713373377996366
sI158
F0.054713373377996366
sI159
F0.054713373377996366
sI160
F0.054713373377996366
sF61.38020907534231
F1700.0
tp8
a(I7
(dp9
I1
F0.04677571242241699
sI2
F0.04677571242241699
sI3
F0.037893219074298115
sI4
F0.037893219074298115
sI5
F0.037893219074298115
sI6
F0.037893219074298115
sI7
F0.02749632776063026
sI8
F0.02749632776063026
sI9
F0.4301369506087486
sI10
F0.4301369506087486
sI11
F0.02749632776063026
sI12
F0.1713069723393552
sI13
F0.1713069723393552
sI14
F0.02976798686223066
sI15
F0.027372259702155167
sI16
F0.027372259702155167
sI17
F0.027372259702155167
sI18
F0.027372259702155167
sI19
F0.029466962221329347
sI20
F0.029466962221329347
sI21
F0.04677571242241699
sI22
F0.04677571242241699
sI23
F0.037893219074298115
sI24
F0.037893219074298115
sI25
F0.037893219074298115
sI26
F0.037893219074298115
sI27
F0.02749632776063026
sI28
F0.02749632776063026
sI29
F0.4301369506087486
sI30
F0.4301369506087486
sI31
F0.02749632776063026
sI32
F0.1713069723393552
sI33
F0.1713069723393552
sI34
F0.02976798686223066
sI35
F0.027372259702155167
sI36
F0.027372259702155167
sI37
F0.027372259702155167
sI38
F0.027372259702155167
sI39
F0.029466962221329347
sI40
F0.029466962221329347
sI41
F0.04677571242241699
sI42
F0.04677571242241699
sI43
F0.037893219074298115
sI44
F0.037893219074298115
sI45
F0.037893219074298115
sI46
F0.037893219074298115
sI47
F0.02749632776063026
sI48
F0.02749632776063026
sI49
F0.4301369506087486
sI50
F0.4301369506087486
sI51
F0.02749632776063026
sI52
F0.1713069723393552
sI53
F0.1713069723393552
sI54
F0.02976798686223066
sI55
F0.027372259702155167
sI56
F0.027372259702155167
sI57
F0.027372259702155167
sI58
F0.027372259702155167
sI59
F0.029466962221329347
sI60
F0.029466962221329347
sI61
F0.03731836634204069
sI62
F0.03731836634204069
sI63
F0.030105395683993195
sI64
F0.030105395683993195
sI65
F0.030105395683993195
sI66
F0.030105395683993195
sI67
F0.021730666640958837
sI68
F0.021730666640958837
sI69
F0.11827445282487767
sI70
F0.11827445282487767
sI71
F0.021730666640958837
sI72
F0.14008928583267546
sI73
F0.14008928583267546
sI74
F0.02354016378119442
sI75
F0.021622652286589404
sI76
F0.021622652286589404
sI77
F0.021622652286589404
sI78
F0.021622652286589404
sI79
F0.023288445795852174
sI80
F0.023288445795852174
sI81
F0.03731836634204069
sI82
F0.03731836634204069
sI83
F0.030105395683993195
sI84
F0.030105395683993195
sI85
F0.030105395683993195
sI86
F0.030105395683993195
sI87
F0.021730666640958837
sI88
F0.021730666640958837
sI89
F0.11827445282487767
sI90
F0.11827445282487767
sI91
F0.021730666640958837
sI92
F0.021730666640958837
sI93
F0.021730666640958837
sI94
F0.02354016378119442
sI95
F0.021622652286589404
sI96
F0.021622652286589404
sI97
F0.021622652286589404
sI98
F0.021622652286589404
sI99
F0.023288445795852174
sI100
F0.023288445795852174
sI101
F0.04515231792770716
sI102
F0.04515231792770716
sI103
F0.03643565572000375
sI104
F0.03643565572000375
sI105
F0.03643565572000375
sI106
F0.03643565572000375
sI107
F0.026473322461248255
sI108
F0.026473322461248255
sI109
F0.026473322461248255
sI110
F0.026473322461248255
sI111
F0.026473322461248255
sI112
F0.026473322461248255
sI113
F0.026473322461248255
sI114
F0.02866353166761175
sI115
F0.02639856894824067
sI116
F0.02639856894824067
sI117
F0.02639856894824067
sI118
F0.02639856894824067
sI119
F0.0284210549789375
sI120
F0.0284210549789375
sI121
F0.04515231792770716
sI122
F0.04515231792770716
sI123
F0.03643565572000375
sI124
F0.03643565572000375
sI125
F0.03643565572000375
sI126
F0.03643565572000375
sI127
F0.026473322461248255
sI128
F0.026473322461248255
sI129
F0.026473322461248255
sI130
F0.026473322461248255
sI131
F0.026473322461248255
sI132
F0.026473322461248255
sI133
F0.026473322461248255
sI134
F0.02866353166761175
sI135
F0.02639856894824067
sI136
F0.02639856894824067
sI137
F0.02639856894824067
sI138
F0.02639856894824067
sI139
F0.0284210549789375
sI140
F0.0284210549789375
sI141
F0.04515231792770716
sI142
F0.04515231792770716
sI143
F0.03643565572000375
sI144
F0.03643565572000375
sI145
F0.03643565572000375
sI146
F0.03643565572000375
sI147
F0.026473322461248255
sI148
F0.026473322461248255
sI149
F0.026473322461248255
sI150
F0.026473322461248255
sI151
F0.026473322461248255
sI152
F0.026473322461248255
sI153
F0.026473322461248255
sI154
F0.02866353166761175
sI155
F0.02639856894824067
sI156
F0.02639856894824067
sI157
F0.02639856894824067
sI158
F0.02639856894824067
sI159
F0.0284210549789375
sI160
F0.0284210549789375
sF40.758325227731035
F2200.0
tp10
a(I1
(dp11
I1
F0.02944739986762327
sI2
F0.02944739986762327
sI3
F0.023821814838318363
sI4
F0.023821814838318363
sI5
F0.023821814838318363
sI6
F0.023821814838318363
sI7
F0.017257576826863175
sI8
F0.017257576826863175
sI9
F0.5906665478211731
sI10
F0.5906665478211731
sI11
F0.017257576826863175
sI12
F0.11022363622387862
sI13
F0.11022363622387862
sI14
F0.018689963846895398
sI15
F0.017179375841180435
sI16
F0.017179375841180435
sI17
F0.017179375841180435
sI18
F0.017179375841180435
sI19
F0.018500094376434437
sI20
F0.018500094376434437
sI21
F0.02944739986762327
sI22
F0.02944739986762327
sI23
F0.023821814838318363
sI24
F0.023821814838318363
sI25
F0.023821814838318363
sI26
F0.023821814838318363
sI27
F0.017257576826863175
sI28
F0.017257576826863175
sI29
F0.5906665478211731
sI30
F0.5906665478211731
sI31
F0.017257576826863175
sI32
F0.11022363622387862
sI33
F0.11022363622387862
sI34
F0.018689963846895398
sI35
F0.017179375841180435
sI36
F0.017179375841180435
sI37
F0.017179375841180435
sI38
F0.017179375841180435
sI39
F0.018500094376434437
sI40
F0.018500094376434437
sI41
F0.017317581079267667
sI42
F0.017317581079267667
sI43
F0.013971831873132536
sI44
F0.013971831873132536
sI45
F0.013971831873132536
sI46
F0.013971831873132536
sI47
F0.010090451173226218
sI48
F0.010090451173226218
sI49
F0.19945480310968627
sI50
F0.19945480310968627
sI51
F0.010090451173226218
sI52
F0.06746530094304501
sI53
F0.06746530094304501
sI54
F0.010935347736160714
sI55
F0.010044357138498123
sI56
F0.010044357138498123
sI57
F0.010044357138498123
sI58
F0.010044357138498123
sI59
F0.010823286885008002
sI60
F0.010823286885008002
sI61
F0.013756254196720993
sI62
F0.013756254196720993
sI63
F0.011060989872478128
sI64
F0.011060989872478128
sI65
F0.011060989872478128
sI66
F0.011060989872478128
sI67
F0.00795387393389453
sI68
F0.00795387393389453
sI69
F0.04532097949057981
sI70
F0.04532097949057981
sI71
F0.00795387393389453
sI72
F0.054277304312294154
sI73
F0.054277304312294154
sI74
F0.00862321257547288
sI75
F0.007913953809627429
sI76
F0.007913953809627429
sI77
F0.007913953809627429
sI78
F0.007913953809627429
sI79
F0.008530035485676607
sI80
F0.008530035485676607
sI81
F0.013756254196720993
sI82
F0.013756254196720993
sI83
F0.011060989872478128
sI84
F0.011060989872478128
sI85
F0.011060989872478128
sI86
F0.011060989872478128
sI87
F0.00795387393389453
sI88
F0.00795387393389453
sI89
F0.04532097949057981
sI90
F0.04532097949057981
sI91
F0.00795387393389453
sI92
F0.00795387393389453
sI93
F0.00795387393389453
sI94
F0.00862321257547288
sI95
F0.007913953809627429
sI96
F0.007913953809627429
sI97
F0.007913953809627429
sI98
F0.007913953809627429
sI99
F0.008530035485676607
sI100
F0.008530035485676607
sI101
F0.016704027075583647
sI102
F0.016704027075583647
sI103
F0.01342544880812438
sI104
F0.01342544880812438
sI105
F0.01342544880812438
sI106
F0.01342544880812438
sI107
F0.00971053790284265
sI108
F0.00971053790284265
sI109
F0.00971053790284265
sI110
F0.00971053790284265
sI111
F0.00971053790284265
sI112
F0.00971053790284265
sI113
F0.00971053790284265
sI114
F0.01052434921183328
sI115
F0.009682790605512555
sI116
F0.009682790605512555
sI117
F0.009682790605512555
sI118
F0.009682790605512555
sI119
F0.010434172480983122
sI120
F0.010434172480983122
sI121
F0.016704027075583647
sI122
F0.016704027075583647
sI123
F0.01342544880812438
sI124
F0.01342544880812438
sI125
F0.01342544880812438
sI126
F0.01342544880812438
sI127
F0.00971053790284265
sI128
F0.00971053790284265
sI129
F0.00971053790284265
sI130
F0.00971053790284265
sI131
F0.00971053790284265
sI132
F0.00971053790284265
sI133
F0.00971053790284265
sI134
F0.01052434921183328
sI135
F0.009682790605512555
sI136
F0.009682790605512555
sI137
F0.009682790605512555
sI138
F0.009682790605512555
sI139
F0.010434172480983122
sI140
F0.010434172480983122
sI141
F0.016704027075583647
sI142
F0.016704027075583647
sI143
F0.01342544880812438
sI144
F0.01342544880812438
sI145
F0.01342544880812438
sI146
F0.01342544880812438
sI147
F0.00971053790284265
sI148
F0.00971053790284265
sI149
F0.00971053790284265
sI150
F0.00971053790284265
sI151
F0.00971053790284265
sI152
F0.00971053790284265
sI153
F0.00971053790284265
sI154
F0.01052434921183328
sI155
F0.009682790605512555
sI156
F0.009682790605512555
sI157
F0.009682790605512555
sI158
F0.009682790605512555
sI159
F0.010434172480983122
sI160
F0.010434172480983122
sF23.800215530169094
F2900.0
tp12
a(I6
(dp13
I1
F0.010816005580095663
sI2
F0.010816005580095663
sI3
F0.008727495085846939
sI4
F0.008727495085846939
sI5
F0.008727495085846939
sI6
F0.008727495085846939
sI7
F0.006948290125041182
sI8
F0.006948290125041182
sI9
F0.3302218026700037
sI10
F0.3302218026700037
sI11
F0.006948290125041182
sI12
F0.04607607106386624
sI13
F0.287110742904888
sI14
F0.0603704986187906
sI15
F0.04126444386432243
sI16
F0.04126444386432243
sI17
F0.010765139576959588
sI18
F0.010765139576959588
sI19
F0.014357095778626853
sI20
F0.014357095778626853
sI21
F0.010816005580095663
sI22
F0.010816005580095663
sI23
F0.008727495085846939
sI24
F0.008727495085846939
sI25
F0.008727495085846939
sI26
F0.008727495085846939
sI27
F0.006948290125041182
sI28
F0.006948290125041182
sI29
F0.3302218026700037
sI30
F0.3302218026700037
sI31
F0.006948290125041182
sI32
F0.04607607106386624
sI33
F0.287110742904888
sI34
F0.0603704986187906
sI35
F0.04126444386432243
sI36
F0.04126444386432243
sI37
F0.010765139576959588
sI38
F0.010765139576959588
sI39
F0.014357095778626853
sI40
F0.014357095778626853
sI41
F0.006326048439684575
sI42
F0.006326048439684575
sI43
F0.005096230450630004
sI44
F0.005096230450630004
sI45
F0.005096230450630004
sI46
F0.005096230450630004
sI47
F0.0040515695118089785
sI48
F0.0040515695118089785
sI49
F0.08679893716279785
sI50
F0.08679893716279785
sI51
F0.0040515695118089785
sI52
F0.027705242231135286
sI53
F0.19304204443728762
sI54
F0.03606866133866454
sI55
F0.02452326520982509
sI56
F0.02452326520982509
sI57
F0.006287253358806244
sI58
F0.006287253358806244
sI59
F0.008394690586303558
sI60
F0.008394690586303558
sI61
F0.005017115801969528
sI62
F0.005017115801969528
sI63
F0.0040292707526064665
sI64
F0.0040292707526064665
sI65
F0.0040292707526064665
sI66
F0.0040292707526064665
sI67
F0.003191096139276425
sI68
F0.003191096139276425
sI69
F0.01844733146724634
sI70
F0.01844733146724634
sI71
F0.003191096139276425
sI72
F0.022171577973989755
sI73
F0.1602213080386611
sI74
F0.0286230701775693
sI75
F0.01941781543803843
sI76
F0.01941781543803843
sI77
F0.004952127814768385
sI78
F0.004952127814768385
sI79
F0.00661489668868769
sI80
F0.00661489668868769
sI81
F0.005017115801969528
sI82
F0.005017115801969528
sI83
F0.0040292707526064665
sI84
F0.0040292707526064665
sI85
F0.0040292707526064665
sI86
F0.0040292707526064665
sI87
F0.003191096139276425
sI88
F0.003191096139276425
sI89
F0.01844733146724634
sI90
F0.01844733146724634
sI91
F0.003191096139276425
sI92
F0.003191096139276425
sI93
F0.003191096139276425
sI94
F0.0034605116063217856
sI95
F0.004952127814768385
sI96
F0.004952127814768385
sI97
F0.004952127814768385
sI98
F0.004952127814768385
sI99
F0.00661489668868769
sI100
F0.00661489668868769
sI101
F0.006100243531172384
sI102
F0.006100243531172384
sI103
F0.004895743557813736
sI104
F0.004895743557813736
sI105
F0.004895743557813736
sI106
F0.004895743557813736
sI107
F0.0038984631095235747
sI108
F0.0038984631095235747
sI109
F0.0038984631095235747
sI110
F0.0038984631095235747
sI111
F0.0038984631095235747
sI112
F0.0038984631095235747
sI113
F0.0038984631095235747
sI114
F0.004226486157982611
sI115
F0.006060598092433926
sI116
F0.006060598092433926
sI117
F0.006060598092433926
sI118
F0.006060598092433926
sI119
F0.008092656022774565
sI120
F0.008092656022774565
sI121
F0.006100243531172384
sI122
F0.006100243531172384
sI123
F0.004895743557813736
sI124
F0.004895743557813736
sI125
F0.004895743557813736
sI126
F0.004895743557813736
sI127
F0.0038984631095235747
sI128
F0.0038984631095235747
sI129
F0.0038984631095235747
sI130
F0.0038984631095235747
sI131
F0.0038984631095235747
sI132
F0.0038984631095235747
sI133
F0.0038984631095235747
sI134
F0.004226486157982611
sI135
F0.006060598092433926
sI136
F0.006060598092433926
sI137
F0.006060598092433926
sI138
F0.006060598092433926
sI139
F0.008092656022774565
sI140
F0.008092656022774565
sI141
F0.006100243531172384
sI142
F0.006100243531172384
sI143
F0.004895743557813736
sI144
F0.004895743557813736
sI145
F0.004895743557813736
sI146
F0.004895743557813736
sI147
F0.0038984631095235747
sI148
F0.0038984631095235747
sI149
F0.0038984631095235747
sI150
F0.0038984631095235747
sI151
F0.0038984631095235747
sI152
F0.0038984631095235747
sI153
F0.0038984631095235747
sI154
F0.004226486157982611
sI155
F0.006060598092433926
sI156
F0.006060598092433926
sI157
F0.006060598092433926
sI158
F0.006060598092433926
sI159
F0.008092656022774565
sI160
F0.008092656022774565
sF18.44082861683119
F3800.0
tp14
a.