(lp0
(I10
(dp1
I1
F0.5
sI2
F0.5
sI3
F0.5
sI4
F0.5
sI5
F0.5
sI6
F0.5
sI7
F0.5
sI8
F0.5
sI9
F0.5
sI10
F0.5
sI11
F0.5
sI12
F0.5
sI13
F0.5
sI14
F0.5
sI15
F0.5
sI16
F0.5
sI17
F0.5
sI18
F0.5
sI19
F0.5
sI20
F0.5
sI21
F0.5
sI22
F0.5
sI23
F0.5
sI24
F0.5
sI25
F0.5
sI26
F0.5
sI27
F0.5
sI28
F0.5
sI29
F0.5
sI30
F0.5
sI31
F0.5
sI32
F0.5
sI33
F0.5
sI34
F0.5
sI35
F0.5
sI36
F0.5
sI37
F0.5
sI38
F0.5
sI39
F0.5
sI40
F0.5
sI41
F0.5
sI42
F0.5
sI43
F0.5
sI44
F0.5
sI45
F0.5
sI46
F0.5
sI47
F0.5
sI48
F0.5
sI49
F0.5
sI50
F0.5
sI51
F0.5
sI52
F0.5
sI53
F0.5
sI54
F0.5
sI55
F0.5
sI56
F0.5
sI57
F0.5
sI58
F0.5
sI59
F0.5
sI60
F0.5
sI61
F0.5
sI62
F0.5
sI63
F0.5
sI64
F0.5
sI65
F0.5
sI66
F0.5
sI67
F0.5
sI68
F0.5
sI69
F0.5
sI70
F0.5
sI71
F0.5
sI72
F0.5
sI73
F0.5
sI74
F0.5
sI75
F0.5
sI76
F0.5
sI77
F0.5
sI78
F0.5
sI79
F0.5
sI80
F0.5
sI81
F0.5
sI82
F0.5
sI83
F0.5
sI84
F0.5
sI85
F0.5
sI86
F0.5
sI87
F0.5
sI88
F0.5
sI89
F0.5
sI90
F0.5
sI91
F0.5
sI92
F0.5
sI93
F0.5
sI94
F0.5
sI95
F0.5
sI96
F0.5
sI97
F0.5
sI98
F0.5
sI99
F0.5
sI100
F0.5
sI101
F0.5
sI102
F0.5
sI103
F0.5
sI104
F0.5
sI105
F0.5
sI106
F0.5
sI107
F0.5
sI108
F0.5
sI109
F0.5
sI110
F0.5
sI111
F0.5
sI112
F0.5
sI113
F0.5
sI114
F0.5
sI115
F0.5
sI116
F0.5
sI117
F0.5
sI118
F0.5
sI119
F0.5
sI120
F0.5
sI121
F0.5
sI122
F0.5
sI123
F0.5
sI124
F0.5
sI125
F0.5
sI126
F0.5
sI127
F0.5
sI128
F0.5
sI129
F0.5
sI130
F0.5
sI131
F0.5
sI132
F0.5
sI133
F0.5
sI134
F0.5
sI135
F0.5
sI136
F0.5
sI137
F0.5
sI138
F0.5
sI139
F0.5
sI140
F0.5
sI141
F0.5
sI142
F0.5
sI143
F0.5
sI144
F0.5
sI145
F0.5
sI146
F0.5
sI147
F0.5
sI148
F0.5
sI149
F0.5
sI150
F0.5
sI151
F0.5
sI152
F0.5
sI153
F0.5
sI154
F0.5
sI155
F0.5
sI156
F0.5
sI157
F0.5
sI158
F0.5
sI159
F0.5
sI160
F0.5
sF160.0
F0.0
(F0.0
F0.0
tp2
tp3
a(I3
(dp4
I1
F0.38
sI2
F0.38
sI3
F0.38
sI4
F0.38
sI5
F0.38
sI6
F0.38
sI7
F0.38
sI8
F0.38
sI9
F0.38
sI10
F0.38
sI11
F0.38
sI12
F0.38
sI13
F0.38
sI14
F0.38
sI15
F0.38
sI16
F0.38
sI17
F0.38
sI18
F0.38
sI19
F0.38
sI20
F0.38
sI21
F0.38
sI22
F0.38
sI23
F0.38
sI24
F0.38
sI25
F0.38
sI26
F0.38
sI27
F0.38
sI28
F0.38
sI29
F0.38
sI30
F0.38
sI31
F0.38
sI32
F0.38
sI33
F0.38
sI34
F0.38
sI35
F0.38
sI36
F0.38
sI37
F0.38
sI38
F0.38
sI39
F0.38
sI40
F0.38
sI41
F0.38
sI42
F0.38
sI43
F0.38
sI44
F0.38
sI45
F0.38
sI46
F0.38
sI47
F0.38
sI48
F0.38
sI49
F0.38
sI50
F0.38
sI51
F0.38
sI52
F0.38
sI53
F0.38
sI54
F0.38
sI55
F0.38
sI56
F0.38
sI57
F0.38
sI58
F0.38
sI59
F0.38
sI60
F0.38
sI61
F0.38
sI62
F0.38
sI63
F0.38
sI64
F0.38
sI65
F0.38
sI66
F0.38
sI67
F0.38
sI68
F0.38
sI69
F0.38
sI70
F0.38
sI71
F0.38
sI72
F0.38
sI73
F0.38
sI74
F0.38
sI75
F0.38
sI76
F0.38
sI77
F0.38
sI78
F0.38
sI79
F0.38
sI80
F0.38
sI81
F0.38
sI82
F0.38
sI83
F0.38
sI84
F0.38
sI85
F0.38
sI86
F0.38
sI87
F0.38
sI88
F0.38
sI89
F0.38
sI90
F0.38
sI91
F0.38
sI92
F0.38
sI93
F0.38
sI94
F0.38
sI95
F0.38
sI96
F0.38
sI97
F0.38
sI98
F0.38
sI99
F0.38
sI100
F0.38
sI101
F0.38
sI102
F0.38
sI103
F0.38
sI104
F0.38
sI105
F0.38
sI106
F0.38
sI107
F0.38
sI108
F0.38
sI109
F0.38
sI110
F0.38
sI111
F0.38
sI112
F0.38
sI113
F0.38
sI114
F0.38
sI115
F0.38
sI116
F0.38
sI117
F0.38
sI118
F0.38
sI119
F0.38
sI120
F0.38
sI121
F0.38
sI122
F0.38
sI123
F0.38
sI124
F0.38
sI125
F0.38
sI126
F0.38
sI127
F0.38
sI128
F0.38
sI129
F0.38
sI130
F0.38
sI131
F0.38
sI132
F0.38
sI133
F0.38
sI134
F0.38
sI135
F0.38
sI136
F0.38
sI137
F0.38
sI138
F0.38
sI139
F0.38
sI140
F0.38
sI141
F0.38
sI142
F0.38
sI143
F0.38
sI144
F0.38
sI145
F0.38
sI146
F0.38
sI147
F0.38
sI148
F0.38
sI149
F0.38
sI150
F0.38
sI151
F0.38
sI152
F0.38
sI153
F0.38
sI154
F0.38
sI155
F0.38
sI156
F0.38
sI157
F0.38
sI158
F0.38
sI159
F0.38
sI160
F0.38
sF153.28672355620733
F0.0
(F6.713276443792665
F0.0
tp5
tp6
a(I2
(dp7
I1
F0.21936363636363634
sI2
F0.21936363636363634
sI3
F0.21936363636363634
sI4
F0.21936363636363634
sI5
F0.21936363636363634
sI6
F0.21936363636363634
sI7
F0.21936363636363634
sI8
F0.21936363636363634
sI9
F0.5946822429906542
sI10
F0.5946822429906542
sI11
F0.21936363636363634
sI12
F0.21936363636363634
sI13
F0.21936363636363634
sI14
F0.21936363636363634
sI15
F0.21936363636363634
sI16
F0.21936363636363634
sI17
F0.21936363636363634
sI18
F0.21936363636363634
sI19
F0.21936363636363634
sI20
F0.21936363636363634
sI21
F0.21936363636363634
sI22
F0.21936363636363634
sI23
F0.21936363636363634
sI24
F0.21936363636363634
sI25
F0.21936363636363634
sI26
F0.21936363636363634
sI27
F0.21936363636363634
sI28
F0.21936363636363634
sI29
F0.5946822429906542
sI30
F0.5946822429906542
sI31
F0.21936363636363634
sI32
F0.21936363636363634
sI33
F0.21936363636363634
sI34
F0.21936363636363634
sI35
F0.21936363636363634
sI36
F0.21936363636363634
sI37
F0.21936363636363634
sI38
F0.21936363636363634
sI39
F0.21936363636363634
sI40
F0.21936363636363634
sI41
F0.21936363636363634
sI42
F0.21936363636363634
sI43
F0.21936363636363634
sI44
F0.21936363636363634
sI45
F0.21936363636363634
sI46
F0.21936363636363634
sI47
F0.21936363636363634
sI48
F0.21936363636363634
sI49
F0.5946822429906542
sI50
F0.5946822429906542
sI51
F0.21936363636363634
sI52
F0.21936363636363634
sI53
F0.21936363636363634
sI54
F0.21936363636363634
sI55
F0.21936363636363634
sI56
F0.21936363636363634
sI57
F0.21936363636363634
sI58
F0.21936363636363634
sI59
F0.21936363636363634
sI60
F0.21936363636363634
sI61
F0.18229370629370628
sI62
F0.18229370629370628
sI63
F0.18229370629370628
sI64
F0.18229370629370628
sI65
F0.18229370629370628
sI66
F0.18229370629370628
sI67
F0.18229370629370628
sI68
F0.18229370629370628
sI69
F0.18229370629370628
sI70
F0.18229370629370628
sI71
F0.18229370629370628
sI72
F0.18229370629370628
sI73
F0.18229370629370628
sI74
F0.18229370629370628
sI75
F0.18229370629370628
sI76
F0.18229370629370628
sI77
F0.18229370629370628
sI78
F0.18229370629370628
sI79
F0.18229370629370628
sI80
F0.18229370629370628
sI81
F0.18229370629370628
sI82
F0.18229370629370628
sI83
F0.18229370629370628
sI84
F0.18229370629370628
sI85
F0.18229370629370628
sI86
F0.18229370629370628
sI87
F0.18229370629370628
sI88
F0.18229370629370628
sI89
F0.18229370629370628
sI90
F0.18229370629370628
sI91
F0.18229370629370628
sI92
F0.18229370629370628
sI93
F0.18229370629370628
sI94
F0.18229370629370628
sI95
F0.18229370629370628
sI96
F0.18229370629370628
sI97
F0.18229370629370628
sI98
F0.18229370629370628
sI99
F0.18229370629370628
sI100
F0.18229370629370628
sI101
F0.18229370629370628
sI102
F0.18229370629370628
sI103
F0.18229370629370628
sI104
F0.18229370629370628
sI105
F0.18229370629370628
sI106
F0.18229370629370628
sI107
F0.18229370629370628
sI108
F0.18229370629370628
sI109
F0.18229370629370628
sI110
F0.18229370629370628
sI111
F0.18229370629370628
sI112
F0.18229370629370628
sI113
F0.18229370629370628
sI114
F0.18229370629370628
sI115
F0.18229370629370628
sI116
F0.18229370629370628
sI117
F0.18229370629370628
sI118
F0.18229370629370628
sI119
F0.18229370629370628
sI120
F0.18229370629370628
sI121
F0.18229370629370628
sI122
F0.18229370629370628
sI123
F0.18229370629370628
sI124
F0.18229370629370628
sI125
F0.18229370629370628
sI126
F0.18229370629370628
sI127
F0.18229370629370628
sI128
F0.18229370629370628
sI129
F0.18229370629370628
sI130
F0.18229370629370628
sI131
F0.18229370629370628
sI132
F0.18229370629370628
sI133
F0.18229370629370628
sI134
F0.18229370629370628
sI135
F0.18229370629370628
sI136
F0.18229370629370628
sI137
F0.18229370629370628
sI138
F0.18229370629370628
sI139
F0.18229370629370628
sI140
F0.18229370629370628
sI141
F0.18229370629370628
sI142
F0.18229370629370628
sI143
F0.18229370629370628
sI144
F0.18229370629370628
sI145
F0.18229370629370628
sI146
F0.18229370629370628
sI147
F0.18229370629370628
sI148
F0.18229370629370628
sI149
F0.18229370629370628
sI150
F0.18229370629370628
sI151
F0.18229370629370628
sI152
F0.18229370629370628
sI153
F0.18229370629370628
sI154
F0.18229370629370628
sI155
F0.18229370629370628
sI156
F0.18229370629370628
sI157
F0.18229370629370628
sI158
F0.18229370629370628
sI159
F0.18229370629370628
sI160
F0.18229370629370628
sF115.33698388892375
F300.0
(F37.94973966728358
I300
tp8
tp9
a(I5
(dp10
I1
F0.08869872950829806
sI2
F0.08869872950829806
sI3
F0.08869872950829806
sI4
F0.08869872950829806
sI5
F0.08869872950829806
sI6
F0.08869872950829806
sI7
F0.08869872950829806
sI8
F0.08869872950829806
sI9
F0.8154543799675797
sI10
F0.8154543799675797
sI11
F0.08869872950829806
sI12
F0.08869872950829806
sI13
F0.08869872950829806
sI14
F0.08869872950829806
sI15
F0.08869872950829806
sI16
F0.08869872950829806
sI17
F0.08869872950829806
sI18
F0.08869872950829806
sI19
F0.08869872950829806
sI20
F0.08869872950829806
sI21
F0.08869872950829806
sI22
F0.08869872950829806
sI23
F0.08869872950829806
sI24
F0.08869872950829806
sI25
F0.08869872950829806
sI26
F0.08869872950829806
sI27
F0.08869872950829806
sI28
F0.08869872950829806
sI29
F0.8154543799675797
sI30
F0.8154543799675797
sI31
F0.08869872950829806
sI32
F0.08869872950829806
sI33
F0.08869872950829806
sI34
F0.08869872950829806
sI35
F0.08869872950829806
sI36
F0.08869872950829806
sI37
F0.08869872950829806
sI38
F0.08869872950829806
sI39
F0.08869872950829806
sI40
F0.08869872950829806
sI41
F0.08869872950829806
sI42
F0.08869872950829806
sI43
F0.08869872950829806
sI44
F0.08869872950829806
sI45
F0.08869872950829806
sI46
F0.08869872950829806
sI47
F0.08869872950829806
sI48
F0.08869872950829806
sI49
F0.8154543799675797
sI50
F0.8154543799675797
sI51
F0.08869872950829806
sI52
F0.08869872950829806
sI53
F0.08869872950829806
sI54
F0.08869872950829806
sI55
F0.08869872950829806
sI56
F0.08869872950829806
sI57
F0.08869872950829806
sI58
F0.08869872950829806
sI59
F0.08869872950829806
sI60
F0.08869872950829806
sI61
F0.07221643239100974
sI62
F0.07221643239100974
sI63
F0.07221643239100974
sI64
F0.07221643239100974
sI65
F0.07221643239100974
sI66
F0.07221643239100974
sI67
F0.07221643239100974
sI68
F0.07221643239100974
sI69
F0.4280203547451626
sI70
F0.4280203547451626
sI71
F0.07221643239100974
sI72
F0.07221643239100974
sI73
F0.07221643239100974
sI74
F0.07221643239100974
sI75
F0.07221643239100974
sI76
F0.07221643239100974
sI77
F0.07221643239100974
sI78
F0.07221643239100974
sI79
F0.07221643239100974
sI80
F0.07221643239100974
sI81
F0.07221643239100974
sI82
F0.07221643239100974
sI83
F0.07221643239100974
sI84
F0.07221643239100974
sI85
F0.07221643239100974
sI86
F0.07221643239100974
sI87
F0.07221643239100974
sI88
F0.07221643239100974
sI89
F0.4280203547451626
sI90
F0.4280203547451626
sI91
F0.07221643239100974
sI92
F0.07221643239100974
sI93
F0.07221643239100974
sI94
F0.07221643239100974
sI95
F0.07221643239100974
sI96
F0.07221643239100974
sI97
F0.07221643239100974
sI98
F0.07221643239100974
sI99
F0.07221643239100974
sI100
F0.07221643239100974
sI101
F0.07221643239100974
sI102
F0.07221643239100974
sI103
F0.07221643239100974
sI104
F0.07221643239100974
sI105
F0.07221643239100974
sI106
F0.07221643239100974
sI107
F0.07221643239100974
sI108
F0.07221643239100974
sI109
F0.4280203547451626
sI110
F0.4280203547451626
sI111
F0.07221643239100974
sI112
F0.07221643239100974
sI113
F0.07221643239100974
sI114
F0.07221643239100974
sI115
F0.07221643239100974
sI116
F0.07221643239100974
sI117
F0.07221643239100974
sI118
F0.07221643239100974
sI119
F0.07221643239100974
sI120
F0.07221643239100974
sI121
F0.11754236870388479
sI122
F0.11754236870388479
sI123
F0.11754236870388479
sI124
F0.11754236870388479
sI125
F0.11754236870388479
sI126
F0.11754236870388479
sI127
F0.11754236870388479
sI128
F0.11754236870388479
sI129
F0.11754236870388479
sI130
F0.11754236870388479
sI131
F0.11754236870388479
sI132
F0.11754236870388479
sI133
F0.11754236870388479
sI134
F0.11754236870388479
sI135
F0.11754236870388479
sI136
F0.11754236870388479
sI137
F0.11754236870388479
sI138
F0.11754236870388479
sI139
F0.11754236870388479
sI140
F0.11754236870388479
sI141
F0.11754236870388479
sI142
F0.11754236870388479
sI143
F0.11754236870388479
sI144
F0.11754236870388479
sI145
F0.11754236870388479
sI146
F0.11754236870388479
sI147
F0.11754236870388479
sI148
F0.11754236870388479
sI149
F0.11754236870388479
sI150
F0.11754236870388479
sI151
F0.11754236870388479
sI152
F0.11754236870388479
sI153
F0.11754236870388479
sI154
F0.11754236870388479
sI155
F0.11754236870388479
sI156
F0.11754236870388479
sI157
F0.11754236870388479
sI158
F0.11754236870388479
sI159
F0.11754236870388479
sI160
F0.11754236870388479
sF74.47734465606591
F1000.0
(F40.859639232857845
I700
tp11
tp12
a(I8
(dp13
I1
F0.04648527825258433
sI2
F0.04648527825258433
sI3
F0.0432380896944525
sI4
F0.0432380896944525
sI5
F0.0432380896944525
sI6
F0.22276884030357855
sI7
F0.22276884030357855
sI8
F0.039990901136320686
sI9
F0.5975146473603345
sI10
F0.5975146473603345
sI11
F0.039990901136320686
sI12
F0.039990901136320686
sI13
F0.039990901136320686
sI14
F0.039990901136320686
sI15
F0.036743712578188856
sI16
F0.036743712578188856
sI17
F0.036743712578188856
sI18
F0.036743712578188856
sI19
F0.036743712578188856
sI20
F0.036743712578188856
sI21
F0.04648527825258433
sI22
F0.04648527825258433
sI23
F0.0432380896944525
sI24
F0.0432380896944525
sI25
F0.0432380896944525
sI26
F0.22276884030357855
sI27
F0.22276884030357855
sI28
F0.039990901136320686
sI29
F0.5975146473603345
sI30
F0.5975146473603345
sI31
F0.039990901136320686
sI32
F0.039990901136320686
sI33
F0.039990901136320686
sI34
F0.039990901136320686
sI35
F0.036743712578188856
sI36
F0.036743712578188856
sI37
F0.036743712578188856
sI38
F0.036743712578188856
sI39
F0.036743712578188856
sI40
F0.036743712578188856
sI41
F0.04648527825258433
sI42
F0.04648527825258433
sI43
F0.0432380896944525
sI44
F0.0432380896944525
sI45
F0.0432380896944525
sI46
F0.22276884030357855
sI47
F0.22276884030357855
sI48
F0.039990901136320686
sI49
F0.5975146473603345
sI50
F0.5975146473603345
sI51
F0.039990901136320686
sI52
F0.039990901136320686
sI53
F0.039990901136320686
sI54
F0.039990901136320686
sI55
F0.036743712578188856
sI56
F0.036743712578188856
sI57
F0.036743712578188856
sI58
F0.036743712578188856
sI59
F0.036743712578188856
sI60
F0.036743712578188856
sI61
F0.037682922847303554
sI62
F0.037682922847303554
sI63
F0.035026499036249235
sI64
F0.035026499036249235
sI65
F0.035026499036249235
sI66
F0.18786402354382076
sI67
F0.18786402354382076
sI68
F0.03237007522519491
sI69
F0.22520187942838776
sI70
F0.22520187942838776
sI71
F0.03237007522519491
sI72
F0.03237007522519491
sI73
F0.03237007522519491
sI74
F0.03237007522519491
sI75
F0.029713651414140584
sI76
F0.029713651414140584
sI77
F0.029713651414140584
sI78
F0.029713651414140584
sI79
F0.029713651414140584
sI80
F0.029713651414140584
sI81
F0.037682922847303554
sI82
F0.037682922847303554
sI83
F0.035026499036249235
sI84
F0.035026499036249235
sI85
F0.035026499036249235
sI86
F0.035026499036249235
sI87
F0.035026499036249235
sI88
F0.03237007522519491
sI89
F0.22520187942838776
sI90
F0.22520187942838776
sI91
F0.03237007522519491
sI92
F0.03237007522519491
sI93
F0.03237007522519491
sI94
F0.03237007522519491
sI95
F0.029713651414140584
sI96
F0.029713651414140584
sI97
F0.029713651414140584
sI98
F0.029713651414140584
sI99
F0.029713651414140584
sI100
F0.029713651414140584
sI101
F0.037682922847303554
sI102
F0.037682922847303554
sI103
F0.035026499036249235
sI104
F0.035026499036249235
sI105
F0.035026499036249235
sI106
F0.035026499036249235
sI107
F0.035026499036249235
sI108
F0.03237007522519491
sI109
F0.22520187942838776
sI110
F0.22520187942838776
sI111
F0.03237007522519491
sI112
F0.03237007522519491
sI113
F0.03237007522519491
sI114
F0.03237007522519491
sI115
F0.029713651414140584
sI116
F0.029713651414140584
sI117
F0.029713651414140584
sI118
F0.029713651414140584
sI119
F0.029713651414140584
sI120
F0.029713651414140584
sI121
F0.062087108603530165
sI122
F0.062087108603530165
sI123
F0.057821319365041354
sI124
F0.057821319365041354
sI125
F0.057821319365041354
sI126
F0.057821319365041354
sI127
F0.057821319365041354
sI128
F0.053555530126552536
sI129
F0.053555530126552536
sI130
F0.053555530126552536
sI131
F0.053555530126552536
sI132
F0.053555530126552536
sI133
F0.053555530126552536
sI134
F0.053555530126552536
sI135
F0.04928974088806371
sI136
F0.04928974088806371
sI137
F0.04928974088806371
sI138
F0.04928974088806371
sI139
F0.04928974088806371
sI140
F0.04928974088806371
sI141
F0.062087108603530165
sI142
F0.062087108603530165
sI143
F0.057821319365041354
sI144
F0.057821319365041354
sI145
F0.057821319365041354
sI146
F0.057821319365041354
sI147
F0.057821319365041354
sI148
F0.053555530126552536
sI149
F0.053555530126552536
sI150
F0.053555530126552536
sI151
F0.053555530126552536
sI152
F0.053555530126552536
sI153
F0.053555530126552536
sI154
F0.053555530126552536
sI155
F0.04928974088806371
sI156
F0.04928974088806371
sI157
F0.04928974088806371
sI158
F0.04928974088806371
sI159
F0.04928974088806371
sI160
F0.04928974088806371
sF51.05014824490237
F1700.0
(F23.427196411163543
I700
tp14
tp15
a(I9
(dp16
I1
F0.036152030986126876
sI2
F0.036152030986126876
sI3
F0.027204948925193637
sI4
F0.027204948925193637
sI5
F0.027204948925193637
sI6
F0.14481619316778616
sI7
F0.09804460488631073
sI8
F0.016243668844616158
sI9
F0.33604708951251494
sI10
F0.33604708951251494
sI11
F0.016243668844616158
sI12
F0.016243668844616158
sI13
F0.016243668844616158
sI14
F0.016243668844616158
sI15
F0.01354086577303338
sI16
F0.01354086577303338
sI17
F0.01354086577303338
sI18
F0.01354086577303338
sI19
F0.01354086577303338
sI20
F0.01354086577303338
sI21
F0.036152030986126876
sI22
F0.036152030986126876
sI23
F0.027204948925193637
sI24
F0.027204948925193637
sI25
F0.027204948925193637
sI26
F0.14481619316778616
sI27
F0.09804460488631073
sI28
F0.016243668844616158
sI29
F0.33604708951251494
sI30
F0.33604708951251494
sI31
F0.016243668844616158
sI32
F0.016243668844616158
sI33
F0.016243668844616158
sI34
F0.016243668844616158
sI35
F0.01354086577303338
sI36
F0.01354086577303338
sI37
F0.01354086577303338
sI38
F0.01354086577303338
sI39
F0.01354086577303338
sI40
F0.01354086577303338
sI41
F0.036152030986126876
sI42
F0.036152030986126876
sI43
F0.027204948925193637
sI44
F0.027204948925193637
sI45
F0.027204948925193637
sI46
F0.14481619316778616
sI47
F0.09804460488631073
sI48
F0.016243668844616158
sI49
F0.33604708951251494
sI50
F0.33604708951251494
sI51
F0.016243668844616158
sI52
F0.016243668844616158
sI53
F0.016243668844616158
sI54
F0.016243668844616158
sI55
F0.01354086577303338
sI56
F0.01354086577303338
sI57
F0.01354086577303338
sI58
F0.01354086577303338
sI59
F0.01354086577303338
sI60
F0.01354086577303338
sI61
F0.02928646345991727
sI62
F0.02928646345991727
sI63
F0.02200968263020593
sI64
F0.02200968263020593
sI65
F0.02200968263020593
sI66
F0.12126637186610648
sI67
F0.0813077808594779
sI68
F0.013109114081275151
sI69
F0.09923415795242871
sI70
F0.09923415795242871
sI71
F0.013109114081275151
sI72
F0.013109114081275151
sI73
F0.013109114081275151
sI74
F0.013109114081275151
sI75
F0.010915118280892252
sI76
F0.010915118280892252
sI77
F0.010915118280892252
sI78
F0.010915118280892252
sI79
F0.010915118280892252
sI80
F0.010915118280892252
sI81
F0.02928646345991727
sI82
F0.02928646345991727
sI83
F0.02200968263020593
sI84
F0.02200968263020593
sI85
F0.02200968263020593
sI86
F0.02200968263020593
sI87
F0.014199592786579944
sI88
F0.013109114081275151
sI89
F0.09923415795242871
sI90
F0.09923415795242871
sI91
F0.013109114081275151
sI92
F0.013109114081275151
sI93
F0.013109114081275151
sI94
F0.013109114081275151
sI95
F0.010915118280892252
sI96
F0.010915118280892252
sI97
F0.010915118280892252
sI98
F0.010915118280892252
sI99
F0.010915118280892252
sI100
F0.010915118280892252
sI101
F0.02928646345991727
sI102
F0.02928646345991727
sI103
F0.02200968263020593
sI104
F0.02200968263020593
sI105
F0.02200968263020593
sI106
F0.02200968263020593
sI107
F0.014199592786579944
sI108
F0.013109114081275151
sI109
F0.09923415795242871
sI110
F0.09923415795242871
sI111
F0.013109114081275151
sI112
F0.013109114081275151
sI113
F0.013109114081275151
sI114
F0.013109114081275151
sI115
F0.010915118280892252
sI116
F0.010915118280892252
sI117
F0.010915118280892252
sI118
F0.010915118280892252
sI119
F0.010915118280892252
sI120
F0.010915118280892252
sI121
F0.048344932206232955
sI122
F0.048344932206232955
sI123
F0.03646596802560602
sI124
F0.03646596802560602
sI125
F0.03646596802560602
sI126
F0.03646596802560602
sI127
F0.02365275722194482
sI128
F0.02187044529860346
sI129
F0.02187044529860346
sI130
F0.02187044529860346
sI131
F0.02187044529860346
sI132
F0.02187044529860346
sI133
F0.02187044529860346
sI134
F0.02187044529860346
sI135
F0.018269592338658984
sI136
F0.018269592338658984
sI137
F0.018269592338658984
sI138
F0.018269592338658984
sI139
F0.018269592338658984
sI140
F0.018269592338658984
sI141
F0.048344932206232955
sI142
F0.048344932206232955
sI143
F0.03646596802560602
sI144
F0.03646596802560602
sI145
F0.03646596802560602
sI146
F0.03646596802560602
sI147
F0.02365275722194482
sI148
F0.02187044529860346
sI149
F0.02187044529860346
sI150
F0.02187044529860346
sI151
F0.02187044529860346
sI152
F0.02187044529860346
sI153
F0.02187044529860346
sI154
F0.02187044529860346
sI155
F0.018269592338658984
sI156
F0.018269592338658984
sI157
F0.018269592338658984
sI158
F0.018269592338658984
sI159
F0.018269592338658984
sI160
F0.018269592338658984
sF32.13403726182313
F2000.0
(F18.916110983079236
I300
tp17
tp18
a(I6
(dp19
I1
F0.01331921467752305
sI2
F0.01331921467752305
sI3
F0.009982205743259791
sI4
F0.009982205743259791
sI5
F0.009982205743259791
sI6
F0.056245494183262065
sI7
F0.04077419786159999
sI8
F0.006537534176382569
sI9
F0.15706582348171994
sI10
F0.15706582348171994
sI11
F0.006537534176382569
sI12
F0.006537534176382569
sI13
F0.05281315017210511
sI14
F0.05281315017210511
sI15
F0.0327949797451338
sI16
F0.0327949797451338
sI17
F0.008480407005662901
sI18
F0.008480407005662901
sI19
F0.010504590512611094
sI20
F0.010504590512611094
sI21
F0.01331921467752305
sI22
F0.01331921467752305
sI23
F0.009982205743259791
sI24
F0.009982205743259791
sI25
F0.009982205743259791
sI26
F0.056245494183262065
sI27
F0.04077419786159999
sI28
F0.006537534176382569
sI29
F0.15706582348171994
sI30
F0.15706582348171994
sI31
F0.006537534176382569
sI32
F0.006537534176382569
sI33
F0.05281315017210511
sI34
F0.05281315017210511
sI35
F0.0327949797451338
sI36
F0.0327949797451338
sI37
F0.008480407005662901
sI38
F0.008480407005662901
sI39
F0.010504590512611094
sI40
F0.010504590512611094
sI41
F0.01331921467752305
sI42
F0.01331921467752305
sI43
F0.009982205743259791
sI44
F0.009982205743259791
sI45
F0.009982205743259791
sI46
F0.056245494183262065
sI47
F0.04077419786159999
sI48
F0.006537534176382569
sI49
F0.15706582348171994
sI50
F0.15706582348171994
sI51
F0.006537534176382569
sI52
F0.006537534176382569
sI53
F0.05281315017210511
sI54
F0.05281315017210511
sI55
F0.0327949797451338
sI56
F0.0327949797451338
sI57
F0.008480407005662901
sI58
F0.008480407005662901
sI59
F0.010504590512611094
sI60
F0.010504590512611094
sI61
F0.010756108379516965
sI62
F0.010756108379516965
sI63
F0.008057011208620188
sI64
F0.008057011208620188
sI65
F0.008057011208620188
sI66
F0.04653723893700458
sI67
F0.03357915392620621
sI68
F0.005269678918294387
sI69
F0.04128955082128016
sI70
F0.04128955082128016
sI71
F0.005269678918294387
sI72
F0.005269678918294387
sI73
F0.04298366393698949
sI74
F0.04298366393698949
sI75
F0.02659562232264269
sI76
F0.02659562232264269
sI77
F0.006833210473316316
sI78
F0.006833210473316316
sI79
F0.00846597359634669
sI80
F0.00846597359634669
sI81
F0.010756108379516965
sI82
F0.010756108379516965
sI83
F0.008057011208620188
sI84
F0.008057011208620188
sI85
F0.008057011208620188
sI86
F0.008057011208620188
sI87
F0.0057104069392232455
sI88
F0.005269678918294387
sI89
F0.04128955082128016
sI90
F0.04128955082128016
sI91
F0.005269678918294387
sI92
F0.005269678918294387
sI93
F0.005269678918294387
sI94
F0.005269678918294387
sI95
F0.006833210473316316
sI96
F0.006833210473316316
sI97
F0.006833210473316316
sI98
F0.006833210473316316
sI99
F0.00846597359634669
sI100
F0.00846597359634669
sI101
F0.010756108379516965
sI102
F0.010756108379516965
sI103
F0.008057011208620188
sI104
F0.008057011208620188
sI105
F0.008057011208620188
sI106
F0.008057011208620188
sI107
F0.0057104069392232455
sI108
F0.005269678918294387
sI109
F0.04128955082128016
sI110
F0.04128955082128016
sI111
F0.005269678918294387
sI112
F0.005269678918294387
sI113
F0.005269678918294387
sI114
F0.005269678918294387
sI115
F0.006833210473316316
sI116
F0.006833210473316316
sI117
F0.006833210473316316
sI118
F0.006833210473316316
sI119
F0.00846597359634669
sI120
F0.00846597359634669
sI121
F0.017911548728627193
sI122
F0.017911548728627193
sI123
F0.013436804195702281
sI124
F0.013436804195702281
sI125
F0.013436804195702281
sI126
F0.013436804195702281
sI127
F0.00954653638063918
sI128
F0.008821122063478714
sI129
F0.008821122063478714
sI130
F0.008821122063478714
sI131
F0.008821122063478714
sI132
F0.008821122063478714
sI133
F0.008821122063478714
sI134
F0.008821122063478714
sI135
F0.011450221620981037
sI136
F0.011450221620981037
sI137
F0.011450221620981037
sI138
F0.011450221620981037
sI139
F0.014177969908052215
sI140
F0.014177969908052215
sI141
F0.017911548728627193
sI142
F0.017911548728627193
sI143
F0.013436804195702281
sI144
F0.013436804195702281
sI145
F0.013436804195702281
sI146
F0.013436804195702281
sI147
F0.00954653638063918
sI148
F0.008821122063478714
sI149
F0.008821122063478714
sI150
F0.008821122063478714
sI151
F0.008821122063478714
sI152
F0.008821122063478714
sI153
F0.008821122063478714
sI154
F0.008821122063478714
sI155
F0.011450221620981037
sI156
F0.011450221620981037
sI157
F0.011450221620981037
sI158
F0.011450221620981037
sI159
F0.014177969908052215
sI160
F0.014177969908052215
sF20.75030023868663
F2900.0
(F11.3837370231365
I900
tp20
tp21
a(I1
(dp22
I1
F0.008341308376308785
sI2
F0.008341308376308785
sI3
F0.006248290720360335
sI4
F0.006248290720360335
sI5
F0.006248290720360335
sI6
F0.03546307932498973
sI7
F0.02564465307830895
sI8
F0.0040899854174092564
sI9
F0.29205397419102097
sI10
F0.29205397419102097
sI11
F0.0040899854174092564
sI12
F0.0040899854174092564
sI13
F0.03328049383493227
sI14
F0.03328049383493227
sI15
F0.020600234022665982
sI16
F0.020600234022665982
sI17
F0.0053070397829370905
sI18
F0.0053070397829370905
sI19
F0.00657579619695033
sI20
F0.00657579619695033
sI21
F0.008341308376308785
sI22
F0.008341308376308785
sI23
F0.006248290720360335
sI24
F0.006248290720360335
sI25
F0.006248290720360335
sI26
F0.03546307932498973
sI27
F0.02564465307830895
sI28
F0.0040899854174092564
sI29
F0.29205397419102097
sI30
F0.29205397419102097
sI31
F0.0040899854174092564
sI32
F0.0040899854174092564
sI33
F0.03328049383493227
sI34
F0.03328049383493227
sI35
F0.020600234022665982
sI36
F0.020600234022665982
sI37
F0.0053070397829370905
sI38
F0.0053070397829370905
sI39
F0.00657579619695033
sI40
F0.00657579619695033
sI41
F0.0048567739654588
sI42
F0.0048567739654588
sI43
F0.003634550204330715
sI44
F0.003634550204330715
sI45
F0.003634550204330715
sI46
F0.0209153889241991
sI47
F0.015053971730005219
sI48
F0.002376701286127938
sI49
F0.06139308998628716
sI50
F0.06139308998628716
sI51
F0.002376701286127938
sI52
F0.002376701286127938
sI53
F0.019607634398911278
sI54
F0.019607634398911278
sI55
F0.012063912016938513
sI56
F0.012063912016938513
sI57
F0.0030856827270290235
sI58
F0.0030856827270290235
sI59
F0.003825640175987796
sI60
F0.003825640175987796
sI61
F0.003917677953986148
sI62
F0.003917677953986148
sI63
F0.0029310753575498543
sI64
F0.0029310753575498543
sI65
F0.0029310753575498543
sI66
F0.017227392688637214
sI67
F0.012356790780416927
sI68
F0.0019147019356616298
sI69
F0.015247851849825505
sI70
F0.015247851849825505
sI71
F0.0019147019356616298
sI72
F0.0019147019356616298
sI73
F0.01588584765113886
sI74
F0.01588584765113886
sI75
F0.009755937716382095
sI76
F0.009755937716382095
sI77
F0.002484518790337205
sI78
F0.002484518790337205
sI79
F0.0030804112592103692
sI80
F0.0030804112592103692
sI81
F0.003917677953986148
sI82
F0.003917677953986148
sI83
F0.0029310753575498543
sI84
F0.0029310753575498543
sI85
F0.0029310753575498543
sI86
F0.0029310753575498543
sI87
F0.002075241888143596
sI88
F0.0019147019356616298
sI89
F0.015247851849825505
sI90
F0.015247851849825505
sI91
F0.0019147019356616298
sI92
F0.0019147019356616298
sI93
F0.0019147019356616298
sI94
F0.0019147019356616298
sI95
F0.002484518790337205
sI96
F0.002484518790337205
sI97
F0.002484518790337205
sI98
F0.002484518790337205
sI99
F0.0030804112592103692
sI100
F0.0030804112592103692
sI101
F0.003917677953986148
sI102
F0.003917677953986148
sI103
F0.0029310753575498543
sI104
F0.0029310753575498543
sI105
F0.0029310753575498543
sI106
F0.0029310753575498543
sI107
F0.002075241888143596
sI108
F0.0019147019356616298
sI109
F0.015247851849825505
sI110
F0.015247851849825505
sI111
F0.0019147019356616298
sI112
F0.0019147019356616298
sI113
F0.0019147019356616298
sI114
F0.0019147019356616298
sI115
F0.002484518790337205
sI116
F0.002484518790337205
sI117
F0.002484518790337205
sI118
F0.002484518790337205
sI119
F0.0030804112592103692
sI120
F0.0030804112592103692
sI121
F0.006544763904817204
sI122
F0.006544763904817204
sI123
F0.004899909244728893
sI124
F0.004899909244728893
sI125
F0.004899909244728893
sI126
F0.004899909244728893
sI127
F0.003475249041388226
sI128
F0.0032101406580737736
sI129
F0.0032101406580737736
sI130
F0.0032101406580737736
sI131
F0.0032101406580737736
sI132
F0.0032101406580737736
sI133
F0.0032101406580737736
sI134
F0.0032101406580737736
sI135
F0.0041717816033334226
sI136
F0.0041717816033334226
sI137
F0.0041717816033334226
sI138
F0.0041717816033334226
sI139
F0.005171895153605206
sI140
F0.005171895153605206
sI141
F0.006544763904817204
sI142
F0.006544763904817204
sI143
F0.004899909244728893
sI144
F0.004899909244728893
sI145
F0.004899909244728893
sI146
F0.004899909244728893
sI147
F0.003475249041388226
sI148
F0.0032101406580737736
sI149
F0.0032101406580737736
sI150
F0.0032101406580737736
sI151
F0.0032101406580737736
sI152
F0.0032101406580737736
sI153
F0.0032101406580737736
sI154
F0.0032101406580737736
sI155
F0.0041717816033334226
sI156
F0.0041717816033334226
sI157
F0.0041717816033334226
sI158
F0.0041717816033334226
sI159
F0.005171895153605206
sI160
F0.005171895153605206
sF12.899900163754209
F3800.0
(F7.850400074932422
I900
tp23
tp24
a.